(dp1
S'files'
p2
(dp3
S'vote_views'
p4
(dp5
S'index'
p6
(dp7
S'html_filename'
p8
S'vote_views.html'
p9
sS'name'
p10
S'vote/views'
p11
sS'nums'
p12
ccopy_reg
_reconstructor
p13
(ccoverage.results
Numbers
p14
c__builtin__
object
p15
NtRp16
(dp17
S'n_files'
p18
I1
sS'n_branches'
p19
I0
sS'n_statements'
p20
I32
sS'n_excluded'
p21
I0
sS'n_partial_branches'
p22
I0
sS'n_missing'
p23
I23
sS'n_missing_branches'
p24
I0
sbssS'hash'
p25
S'G\x10\x81{\x8c\xff\x1e\xcfa\xac\xf5Y\\d\xbb\xc3'
p26
ssS'api_fields'
p27
(dp28
g6
(dp29
S'html_filename'
p30
S'api_fields.html'
p31
sS'name'
p32
S'api/fields'
p33
sS'nums'
p34
g13
(g14
g15
NtRp35
(dp36
g18
I1
sg19
I0
sg20
I5
sg21
I0
sg22
I0
sg23
I1
sg24
I0
sbssg25
S'\xc5\t:\xeb\x8e\xc3\xc7\x16\x16\x06Y\xc5\xaf\x15\x05?'
p37
ssS'manage'
p38
(dp39
g6
(dp40
g30
S'manage.html'
p41
sg32
g38
sg34
g13
(g14
g15
NtRp42
(dp43
g18
I1
sg19
I0
sg20
I6
sg21
I0
sg22
I0
sg23
I0
sg24
I0
sbssg25
S'*\xf6\xd0R\xbe\xf4"\xa1`\xee~I@g"<'
p44
ssS'api_serializers'
p45
(dp46
g6
(dp47
g30
S'api_serializers.html'
p48
sg32
S'api/serializers'
p49
sg34
g13
(g14
g15
NtRp50
(dp51
g18
I1
sg19
I0
sg20
I62
sg21
I0
sg22
I0
sg23
I0
sg24
I0
sbssg25
S'\xa4\xc4\xc3\nu\xbd\rS1\x9b\xa8\xb7\xd6}\x00\xae'
p52
ssS'vote_models'
p53
(dp54
g6
(dp55
g30
S'vote_models.html'
p56
sg32
S'vote/models'
p57
sg34
g13
(g14
g15
NtRp58
(dp59
g18
I1
sg19
I0
sg20
I23
sg21
I0
sg22
I0
sg23
I2
sg24
I0
sbssg25
S'\xf0#\xf7Oq\xf9Y\x8fPp\x80\xc5m\xf7U+'
p60
ssS'commontag_templatetags___init__'
p61
(dp62
g6
(dp63
g30
S'commontag_templatetags___init__.html'
p64
sg32
S'commontag/templatetags/__init__'
p65
sg34
g13
(g14
g15
NtRp66
(dp67
g18
I1
sg19
I0
sg20
I0
sg21
I0
sg22
I0
sg23
I0
sg24
I0
sbssg25
S'\xca\xf5\x9f\x7f\x88\xdfa\x831|T\x1d\xbc}\xa5v'
p68
ssS'issue___init__'
p69
(dp70
g6
(dp71
g30
S'issue___init__.html'
p72
sg32
S'issue/__init__'
p73
sg34
g13
(g14
g15
NtRp74
(dp75
g18
I1
sg19
I0
sg20
I0
sg21
I0
sg22
I0
sg23
I0
sg24
I0
sbssg25
S'\xca\xf5\x9f\x7f\x88\xdfa\x831|T\x1d\xbc}\xa5v'
p76
ssS'legislator___init__'
p77
(dp78
g6
(dp79
g30
S'legislator___init__.html'
p80
sg32
S'legislator/__init__'
p81
sg34
g13
(g14
g15
NtRp82
(dp83
g18
I1
sg19
I0
sg20
I0
sg21
I0
sg22
I0
sg23
I0
sg24
I0
sbssg25
S'\xca\xf5\x9f\x7f\x88\xdfa\x831|T\x1d\xbc}\xa5v'
p84
ssS'ly_wsgi'
p85
(dp86
g6
(dp87
g30
S'ly_wsgi.html'
p88
sg32
S'ly/wsgi'
p89
sg34
g13
(g14
g15
NtRp90
(dp91
g18
I1
sg19
I0
sg20
I4
sg21
I0
sg22
I0
sg23
I0
sg24
I0
sbssg25
S'\x9f\xf5\x00\x13\x8f7\xc5J\x8e\xcet{xp\xfe|'
p92
ssS'issue_urls'
p93
(dp94
g6
(dp95
g30
S'issue_urls.html'
p96
sg32
S'issue/urls'
p97
sg34
g13
(g14
g15
NtRp98
(dp99
g18
I1
sg19
I0
sg20
I3
sg21
I0
sg22
I0
sg23
I0
sg24
I0
sbssg25
S'\x95\xf7:x#\x17N\xfcJC$g\xf2\xeb\xe4e'
p100
ssS'api___init__'
p101
(dp102
g6
(dp103
g30
S'api___init__.html'
p104
sg32
S'api/__init__'
p105
sg34
g13
(g14
g15
NtRp106
(dp107
g18
I1
sg19
I0
sg20
I0
sg21
I0
sg22
I0
sg23
I0
sg24
I0
sbssg25
S'\xca\xf5\x9f\x7f\x88\xdfa\x831|T\x1d\xbc}\xa5v'
p108
ssS'bill_migrations___init__'
p109
(dp110
g6
(dp111
g30
S'bill_migrations___init__.html'
p112
sg32
S'bill/migrations/__init__'
p113
sg34
g13
(g14
g15
NtRp114
(dp115
g18
I1
sg19
I0
sg20
I0
sg21
I0
sg22
I0
sg23
I0
sg24
I0
sbssg25
S'\xca\xf5\x9f\x7f\x88\xdfa\x831|T\x1d\xbc}\xa5v'
p116
ssS'committees___init__'
p117
(dp118
g6
(dp119
g30
S'committees___init__.html'
p120
sg32
S'committees/__init__'
p121
sg34
g13
(g14
g15
NtRp122
(dp123
g18
I1
sg19
I0
sg20
I0
sg21
I0
sg22
I0
sg23
I0
sg24
I0
sbssg25
S'\xca\xf5\x9f\x7f\x88\xdfa\x831|T\x1d\xbc}\xa5v'
p124
ssS'issue_tests'
p125
(dp126
g6
(dp127
g30
S'issue_tests.html'
p128
sg32
S'issue/tests'
p129
sg34
g13
(g14
g15
NtRp130
(dp131
g18
I1
sg19
I0
sg20
I4
sg21
I0
sg22
I0
sg23
I0
sg24
I0
sbssg25
S'\xe5\xc7X\x04rgg\x8a\x08\x14\xaa\xc0@\xc2\x8b\x97'
p132
ssS'ly_local_settings'
p133
(dp134
g6
(dp135
g8
S'ly_local_settings.html'
p136
sg10
S'ly/local_settings'
p137
sg12
g13
(g14
g15
NtRp138
(dp139
g18
I1
sg19
I0
sg20
I2
sg21
I0
sg22
I0
sg23
I0
sg24
I0
sbssg25
S'\xdf\x82\x85\x17P^\x18\x01\x86H\xa2\xf8\x18\xd3\xd8\xe7'
p140
ssS'ly_test'
p141
(dp142
g6
(dp143
g30
S'ly_test.html'
p144
sg32
S'ly/test'
p145
sg34
g13
(g14
g15
NtRp146
(dp147
g18
I1
sg19
I0
sg20
I5
sg21
I0
sg22
I0
sg23
I0
sg24
I0
sbssg25
S'\xf4\xb8\x06\xa1 \x19\xb9\xbf\xff5\xc1\xce\xdb\xe1\x9f\x9a'
p148
ssS'proposal___init__'
p149
(dp150
g6
(dp151
g30
S'proposal___init__.html'
p152
sg32
S'proposal/__init__'
p153
sg34
g13
(g14
g15
NtRp154
(dp155
g18
I1
sg19
I0
sg20
I0
sg21
I0
sg22
I0
sg23
I0
sg24
I0
sbssg25
S'\xca\xf5\x9f\x7f\x88\xdfa\x831|T\x1d\xbc}\xa5v'
p156
ssS'legislator_urls'
p157
(dp158
g6
(dp159
S'html_filename'
p160
S'legislator_urls.html'
p161
sS'name'
p162
S'legislator/urls'
p163
sS'nums'
p164
g13
(g14
g15
NtRp165
(dp166
g18
I1
sg19
I0
sg20
I3
sg21
I0
sg22
I0
sg23
I0
sg24
I0
sbssg25
S'\xe6\xe64C\xccS6\x86\xd4\xb7\xf0@\xa0v\xa1o'
p167
ssS'bill___init__'
p168
(dp169
g6
(dp170
g30
S'bill___init__.html'
p171
sg32
S'bill/__init__'
p172
sg34
g13
(g14
g15
NtRp173
(dp174
g18
I1
sg19
I0
sg20
I0
sg21
I0
sg22
I0
sg23
I0
sg24
I0
sbssg25
S'\xca\xf5\x9f\x7f\x88\xdfa\x831|T\x1d\xbc}\xa5v'
p175
ssS'commontag_tests'
p176
(dp177
g6
(dp178
g30
S'commontag_tests.html'
p179
sg32
S'commontag/tests'
p180
sg34
g13
(g14
g15
NtRp181
(dp182
g18
I1
sg19
I0
sg20
I4
sg21
I0
sg22
I0
sg23
I0
sg24
I0
sbssg25
S'\xe5\xc7X\x04rgg\x8a\x08\x14\xaa\xc0@\xc2\x8b\x97'
p183
ssS'bill_migrations_0002_auto__chg_field_ttsmotions_category__chg_field_ttsmotions_tags__chg_fi'
p184
(dp185
g6
(dp186
g30
S'bill_migrations_0002_auto__chg_field_ttsmotions_category__chg_field_ttsmotions_tags__chg_fi.html'
p187
sg32
S'bill/migrations/0002_auto__chg_field_ttsmotions_category__chg_field_ttsmotions_tags__chg_fi'
p188
sg34
g13
(g14
g15
NtRp189
(dp190
g18
I1
sg19
I0
sg20
I25
sg21
I0
sg22
I0
sg23
I8
sg24
I0
sbssg25
S'|\xa4_A\xaf\xe2\xae\x1f%\x00\xff\x10iA\xbb\x0f'
p191
ssS'api_views'
p192
(dp193
g6
(dp194
g30
S'api_views.html'
p195
sg32
S'api/views'
p196
sg34
g13
(g14
g15
NtRp197
(dp198
g18
I1
sg19
I0
sg20
I62
sg21
I0
sg22
I0
sg23
I0
sg24
I0
sbssg25
S'\xb6$[\xf8[\x03}!j\xde6\xc8\x02\xc9\x06>'
p199
ssS'commontag_views'
p200
(dp201
g6
(dp202
g30
S'commontag_views.html'
p203
sg32
S'commontag/views'
p204
sg34
g13
(g14
g15
NtRp205
(dp206
g18
I1
sg19
I0
sg20
I0
sg21
I0
sg22
I0
sg23
I0
sg24
I0
sbssg25
S'\xbb\xe8\xc1Q\x1b;\x06\x08\xf4\n[\xbf\x901v\x0e'
p207
ssS'vote_tests'
p208
(dp209
g6
(dp210
g30
S'vote_tests.html'
p211
sg32
S'vote/tests'
p212
sg34
g13
(g14
g15
NtRp213
(dp214
g18
I1
sg19
I0
sg20
I4
sg21
I0
sg22
I0
sg23
I0
sg24
I0
sbssg25
S'\xe5\xc7X\x04rgg\x8a\x08\x14\xaa\xc0@\xc2\x8b\x97'
p215
ssS'commontag_templatetags_ly_extras'
p216
(dp217
g6
(dp218
S'html_filename'
p219
S'commontag_templatetags_ly_extras.html'
p220
sS'name'
p221
S'commontag/templatetags/ly_extras'
p222
sS'nums'
p223
g13
(g14
g15
NtRp224
(dp225
g18
I1
sg19
I0
sg20
I23
sg21
I0
sg22
I0
sg23
I7
sg24
I0
sbssg25
S'\xe7\xd0\xa1*}\xf9\x89\xd3\xb4\xb5 \xfd\n\xc6/+'
p226
ssS'legislator_tests'
p227
(dp228
g6
(dp229
S'html_filename'
p230
S'legislator_tests.html'
p231
sS'name'
p232
S'legislator/tests'
p233
sS'nums'
p234
g13
(g14
g15
NtRp235
(dp236
g18
I1
sg19
I0
sg20
I33
sg21
I0
sg22
I0
sg23
I0
sg24
I0
sbssg25
S'\x9cu\xb0\x97H\xc3\xab\x05\x0f\x80\xba\xa8\xf0\xca\nX'
p237
ssS'bill_migrations_0001_initial'
p238
(dp239
g6
(dp240
g30
S'bill_migrations_0001_initial.html'
p241
sg32
S'bill/migrations/0001_initial'
p242
sg34
g13
(g14
g15
NtRp243
(dp244
g18
I1
sg19
I0
sg20
I24
sg21
I0
sg22
I0
sg23
I5
sg24
I0
sbssg25
S'?*\x92\x0f\xa2\x9f\x18\x82\x9e6\t\x84\xbd\xa8*\x80'
p245
ssS'search_tests'
p246
(dp247
g6
(dp248
g30
S'search_tests.html'
p249
sg32
S'search/tests'
p250
sg34
g13
(g14
g15
NtRp251
(dp252
g18
I1
sg19
I0
sg20
I4
sg21
I0
sg22
I0
sg23
I0
sg24
I0
sbssg25
S'\xe5\xc7X\x04rgg\x8a\x08\x14\xaa\xc0@\xc2\x8b\x97'
p253
ssS'legislator_views'
p254
(dp255
g6
(dp256
g230
S'legislator_views.html'
p257
sg232
S'legislator/views'
p258
sg234
g13
(g14
g15
NtRp259
(dp260
g18
I1
sg19
I0
sg20
I222
sg21
I0
sg22
I0
sg23
I80
sg24
I0
sbssg25
S'\x0e\x9e.N6\xd9\xba\x17\x87\xd0jY\x07\x05\x06\xb4'
p261
ssS'legislator_context_processor'
p262
(dp263
g6
(dp264
g30
S'legislator_context_processor.html'
p265
sg32
S'legislator/context_processor'
p266
sg34
g13
(g14
g15
NtRp267
(dp268
g18
I1
sg19
I0
sg20
I14
sg21
I0
sg22
I0
sg23
I0
sg24
I0
sbssg25
S'\xdfU\xb4\x1a\x19O\x8e\xf2.\xc5\xaf\xb7\xa9\xda\xf2#'
p269
ssS'search_views'
p270
(dp271
g6
(dp272
g219
S'search_views.html'
p273
sg221
S'search/views'
p274
sg223
g13
(g14
g15
NtRp275
(dp276
g18
I1
sg19
I0
sg20
I3
sg21
I0
sg22
I0
sg23
I0
sg24
I0
sbssg25
S'\xddh\rJ)\x1c$}\xa9E\xa9\xa5%-\x1dh'
p277
ssS'ly_settings'
p278
(dp279
g6
(dp280
g30
S'ly_settings.html'
p281
sg32
S'ly/settings'
p282
sg34
g13
(g14
g15
NtRp283
(dp284
g18
I1
sg19
I0
sg20
I35
sg21
I0
sg22
I0
sg23
I1
sg24
I0
sbssg25
S'\xde\x08\x81\xba\xdf\x04\xe9\x85\xd9\xe2\xf8\xf5\x8b\xa9\xb17'
p285
ssS'bill_views'
p286
(dp287
g6
(dp288
g8
S'bill_views.html'
p289
sg10
S'bill/views'
p290
sg12
g13
(g14
g15
NtRp291
(dp292
g18
I1
sg19
I0
sg20
I30
sg21
I0
sg22
I0
sg23
I21
sg24
I0
sbssg25
S'}q\nK\xfbm\x989\xdf\xb0\x05(\x08:\xee\x10'
p293
ssS'proposal_tests'
p294
(dp295
g6
(dp296
g30
S'proposal_tests.html'
p297
sg32
S'proposal/tests'
p298
sg34
g13
(g14
g15
NtRp299
(dp300
g18
I1
sg19
I0
sg20
I4
sg21
I0
sg22
I0
sg23
I0
sg24
I0
sbssg25
S'\xe5\xc7X\x04rgg\x8a\x08\x14\xaa\xc0@\xc2\x8b\x97'
p301
ssS'sittings_models'
p302
(dp303
g6
(dp304
g30
S'sittings_models.html'
p305
sg32
S'sittings/models'
p306
sg34
g13
(g14
g15
NtRp307
(dp308
g18
I1
sg19
I0
sg20
I10
sg21
I0
sg22
I0
sg23
I1
sg24
I0
sbssg25
S'\x80wh\xd6\xd8\xef-<\x94j\x9f\x11i\x08\x8d\xd2'
p309
ssS'proposal_models'
p310
(dp311
g6
(dp312
g30
S'proposal_models.html'
p313
sg32
S'proposal/models'
p314
sg34
g13
(g14
g15
NtRp315
(dp316
g18
I1
sg19
I0
sg20
I21
sg21
I0
sg22
I0
sg23
I3
sg24
I0
sbssg25
S't\xb4\xc8\xeb\xec\xaa\xb9Dn1\x88\x9e\xc0I<\xc8'
p317
ssS'issue_models'
p318
(dp319
g6
(dp320
g30
S'issue_models.html'
p321
sg32
S'issue/models'
p322
sg34
g13
(g14
g15
NtRp323
(dp324
g18
I1
sg19
I0
sg20
I36
sg21
I0
sg22
I0
sg23
I2
sg24
I0
sbssg25
S'`\x04\x1b\xd7\x14+\x13}\xfd\xc3dyk\x1b\xf8\x11'
p325
ssS'api_tests'
p326
(dp327
g6
(dp328
g30
S'api_tests.html'
p329
sg32
S'api/tests'
p330
sg34
g13
(g14
g15
NtRp331
(dp332
g18
I1
sg19
I0
sg20
I4
sg21
I0
sg22
I0
sg23
I0
sg24
I0
sbssg25
S'\xe5\xc7X\x04rgg\x8a\x08\x14\xaa\xc0@\xc2\x8b\x97'
p333
ssS'ly_views'
p334
(dp335
g6
(dp336
g30
S'ly_views.html'
p337
sg32
S'ly/views'
p338
sg34
g13
(g14
g15
NtRp339
(dp340
g18
I1
sg19
I0
sg20
I11
sg21
I0
sg22
I0
sg23
I5
sg24
I0
sbssg25
S'\x17\x0e\xbe\xf7{\xa1\xbd)jt-}\xda\xa6\xeb\xd2'
p341
ssS'ly_urls'
p342
(dp343
g6
(dp344
g30
S'ly_urls.html'
p345
sg32
S'ly/urls'
p346
sg34
g13
(g14
g15
NtRp347
(dp348
g18
I1
sg19
I0
sg20
I21
sg21
I0
sg22
I0
sg23
I0
sg24
I0
sbssg25
S'O\r\xbb\xbf\x87F\xcblIf\x14e\xa8\x0c\x0e\xd5'
p349
ssS'proposal_views'
p350
(dp351
g6
(dp352
g8
S'proposal_views.html'
p353
sg10
S'proposal/views'
p354
sg12
g13
(g14
g15
NtRp355
(dp356
g18
I1
sg19
I0
sg20
I27
sg21
I0
sg22
I0
sg23
I18
sg24
I0
sbssg25
S'n(k\x8b\r\x0bi\x1bf\xc1\xae\xa7oh\xc4\x82'
p357
ssS'bill_tests'
p358
(dp359
g6
(dp360
g30
S'bill_tests.html'
p361
sg32
S'bill/tests'
p362
sg34
g13
(g14
g15
NtRp363
(dp364
g18
I1
sg19
I0
sg20
I4
sg21
I0
sg22
I0
sg23
I0
sg24
I0
sbssg25
S'\xe5\xc7X\x04rgg\x8a\x08\x14\xaa\xc0@\xc2\x8b\x97'
p365
ssS'legislator_admin'
p366
(dp367
g6
(dp368
g30
S'legislator_admin.html'
p369
sg32
S'legislator/admin'
p370
sg34
g13
(g14
g15
NtRp371
(dp372
g18
I1
sg19
I0
sg20
I21
sg21
I0
sg22
I0
sg23
I0
sg24
I0
sbssg25
S'\xa0\xd6\xcc\xea\x8fYx\x83\xfd\xf2\xdb[\xf9\x90\n\x8c'
p373
ssS'legislator_models'
p374
(dp375
g6
(dp376
g160
S'legislator_models.html'
p377
sg162
S'legislator/models'
p378
sg164
g13
(g14
g15
NtRp379
(dp380
g18
I1
sg19
I0
sg20
I73
sg21
I0
sg22
I0
sg23
I6
sg24
I0
sbssg25
S"J'\x0cI\x04\xc6\xb3\x0f]N(\xc7\xb8\xd9\xa1\x9e"
p381
ssS'committees_models'
p382
(dp383
g6
(dp384
g30
S'committees_models.html'
p385
sg32
S'committees/models'
p386
sg34
g13
(g14
g15
NtRp387
(dp388
g18
I1
sg19
I0
sg20
I13
sg21
I0
sg22
I0
sg23
I1
sg24
I0
sbssg25
S"\xaa]S8:\x82's&7\x06\x1a\x1b\x06\xc0;"
p389
ssS'sittings___init__'
p390
(dp391
g6
(dp392
g30
S'sittings___init__.html'
p393
sg32
S'sittings/__init__'
p394
sg34
g13
(g14
g15
NtRp395
(dp396
g18
I1
sg19
I0
sg20
I0
sg21
I0
sg22
I0
sg23
I0
sg24
I0
sbssg25
S'\xca\xf5\x9f\x7f\x88\xdfa\x831|T\x1d\xbc}\xa5v'
p397
ssS'commontag___init__'
p398
(dp399
g6
(dp400
g30
S'commontag___init__.html'
p401
sg32
S'commontag/__init__'
p402
sg34
g13
(g14
g15
NtRp403
(dp404
g18
I1
sg19
I0
sg20
I0
sg21
I0
sg22
I0
sg23
I0
sg24
I0
sbssg25
S'\xca\xf5\x9f\x7f\x88\xdfa\x831|T\x1d\xbc}\xa5v'
p405
ssS'ly___init__'
p406
(dp407
g6
(dp408
g30
S'ly___init__.html'
p409
sg32
S'ly/__init__'
p410
sg34
g13
(g14
g15
NtRp411
(dp412
g18
I1
sg19
I0
sg20
I0
sg21
I0
sg22
I0
sg23
I0
sg24
I0
sbssg25
S'\xca\xf5\x9f\x7f\x88\xdfa\x831|T\x1d\xbc}\xa5v'
p413
ssS'sittings_views'
p414
(dp415
g6
(dp416
g30
S'sittings_views.html'
p417
sg32
S'sittings/views'
p418
sg34
g13
(g14
g15
NtRp419
(dp420
g18
I1
sg19
I0
sg20
I0
sg21
I0
sg22
I0
sg23
I0
sg24
I0
sbssg25
S'\xbb\xe8\xc1Q\x1b;\x06\x08\xf4\n[\xbf\x901v\x0e'
p421
ssS'proposal_urls'
p422
(dp423
g6
(dp424
g8
S'proposal_urls.html'
p425
sg10
S'proposal/urls'
p426
sg12
g13
(g14
g15
NtRp427
(dp428
g18
I1
sg19
I0
sg20
I3
sg21
I0
sg22
I0
sg23
I0
sg24
I0
sbssg25
S'\xd00\x19\x95\xa4;\xbf;gb\xa7\xac\x83\xe55\xea'
p429
ssS'bill_models'
p430
(dp431
g6
(dp432
g30
S'bill_models.html'
p433
sg32
S'bill/models'
p434
sg34
g13
(g14
g15
NtRp435
(dp436
g18
I1
sg19
I0
sg20
I59
sg21
I0
sg22
I0
sg23
I3
sg24
I0
sbssg25
S' \xb9\xb3\xd8C\xa4\xc5\xdbq@\xe9wn7\xcb\xa7'
p437
ssS'bill_migrations_0003_auto__chg_field_ttsmotions_category__chg_field_ttsmotions_tags__chg_fi'
p438
(dp439
g6
(dp440
g30
S'bill_migrations_0003_auto__chg_field_ttsmotions_category__chg_field_ttsmotions_tags__chg_fi.html'
p441
sg32
S'bill/migrations/0003_auto__chg_field_ttsmotions_category__chg_field_ttsmotions_tags__chg_fi'
p442
sg34
g13
(g14
g15
NtRp443
(dp444
g18
I1
sg19
I0
sg20
I23
sg21
I0
sg22
I0
sg23
I7
sg24
I0
sbssg25
S'\xb1\xa2EE\xc1c(\xa4\x99\xee\xc4\xa3\xcdo\xf6\xe8'
p445
ssS'bill_urls'
p446
(dp447
g6
(dp448
g8
S'bill_urls.html'
p449
sg10
S'bill/urls'
p450
sg12
g13
(g14
g15
NtRp451
(dp452
g18
I1
sg19
I0
sg20
I3
sg21
I0
sg22
I0
sg23
I0
sg24
I0
sbssg25
S'\xfe\xa5S|\x1d\xe2\xb9\x8c\x85\x03j\xbe\xc1\xb9\x14='
p453
ssS'search_models'
p454
(dp455
g6
(dp456
g30
S'search_models.html'
p457
sg32
S'search/models'
p458
sg34
g13
(g14
g15
NtRp459
(dp460
g18
I1
sg19
I0
sg20
I8
sg21
I0
sg22
I0
sg23
I1
sg24
I0
sbssg25
S'\xd6\x1d\xdag\x97-\x9fX\x1d\xd0o\xfb\xd9c\xa3\xa0'
p461
ssS'vote___init__'
p462
(dp463
g6
(dp464
g30
S'vote___init__.html'
p465
sg32
S'vote/__init__'
p466
sg34
g13
(g14
g15
NtRp467
(dp468
g18
I1
sg19
I0
sg20
I0
sg21
I0
sg22
I0
sg23
I0
sg24
I0
sbssg25
S'\xca\xf5\x9f\x7f\x88\xdfa\x831|T\x1d\xbc}\xa5v'
p469
ssS'commontag_models'
p470
(dp471
g6
(dp472
g30
S'commontag_models.html'
p473
sg32
S'commontag/models'
p474
sg34
g13
(g14
g15
NtRp475
(dp476
g18
I1
sg19
I0
sg20
I1
sg21
I0
sg22
I0
sg23
I0
sg24
I0
sbssg25
S'\xd5M\xc7\x8c\x14P\xcc\xf0D\xe4\x95\xf6\x03`\xf1a'
p477
ssS'committees_views'
p478
(dp479
g6
(dp480
g30
S'committees_views.html'
p481
sg32
S'committees/views'
p482
sg34
g13
(g14
g15
NtRp483
(dp484
g18
I1
sg19
I0
sg20
I0
sg21
I0
sg22
I0
sg23
I0
sg24
I0
sbssg25
S'\xbb\xe8\xc1Q\x1b;\x06\x08\xf4\n[\xbf\x901v\x0e'
p485
ssS'committees_tests'
p486
(dp487
g6
(dp488
g30
S'committees_tests.html'
p489
sg32
S'committees/tests'
p490
sg34
g13
(g14
g15
NtRp491
(dp492
g18
I1
sg19
I0
sg20
I4
sg21
I0
sg22
I0
sg23
I0
sg24
I0
sbssg25
S'\xe5\xc7X\x04rgg\x8a\x08\x14\xaa\xc0@\xc2\x8b\x97'
p493
ssS'vote_urls'
p494
(dp495
g6
(dp496
g8
S'vote_urls.html'
p497
sg10
S'vote/urls'
p498
sg12
g13
(g14
g15
NtRp499
(dp500
g18
I1
sg19
I0
sg20
I3
sg21
I0
sg22
I0
sg23
I0
sg24
I0
sbssg25
S"\x8e\x12\x10W\xb66\xff\x92\n{v'\x9d\xf6\x12\xce"
p501
ssS'search___init__'
p502
(dp503
g6
(dp504
g30
S'search___init__.html'
p505
sg32
S'search/__init__'
p506
sg34
g13
(g14
g15
NtRp507
(dp508
g18
I1
sg19
I0
sg20
I0
sg21
I0
sg22
I0
sg23
I0
sg24
I0
sbssg25
S'\xca\xf5\x9f\x7f\x88\xdfa\x831|T\x1d\xbc}\xa5v'
p509
ssS'issue_views'
p510
(dp511
g6
(dp512
g30
S'issue_views.html'
p513
sg32
S'issue/views'
p514
sg34
g13
(g14
g15
NtRp515
(dp516
g18
I1
sg19
I0
sg20
I14
sg21
I0
sg22
I0
sg23
I9
sg24
I0
sbssg25
S'+-\x92p{\xa1N+\xbd\x13\x94\xc3<v\xbbw'
p517
ssS'sittings_tests'
p518
(dp519
g6
(dp520
g30
S'sittings_tests.html'
p521
sg32
S'sittings/tests'
p522
sg34
g13
(g14
g15
NtRp523
(dp524
g18
I1
sg19
I0
sg20
I4
sg21
I0
sg22
I0
sg23
I0
sg24
I0
sbssg25
S'\xe5\xc7X\x04rgg\x8a\x08\x14\xaa\xc0@\xc2\x8b\x97'
p525
sssS'version'
p526
S'3.7.1'
p527
sS'settings'
p528
S'\x1cL\x8e\xcf\xc6\xec\xd9\xf6fM\xf4k4\xf5-\xd8'
p529
sS'format'
p530
I1
s.