(dp1
S'files'
p2
(dp3
S'vote_views'
p4
(dp5
S'index'
p6
(dp7
S'html_filename'
p8
S'vote_views.html'
p9
sS'name'
p10
S'vote/views'
p11
sS'nums'
p12
ccopy_reg
_reconstructor
p13
(ccoverage.results
Numbers
p14
c__builtin__
object
p15
NtRp16
(dp17
S'n_files'
p18
I1
sS'n_branches'
p19
I0
sS'n_statements'
p20
I24
sS'n_excluded'
p21
I0
sS'n_partial_branches'
p22
I0
sS'n_missing'
p23
I7
sS'n_missing_branches'
p24
I0
sbssS'hash'
p25
S'\xddUu\x16J]\x1d\x13\xbd\xe38Q.\x96\xe3/'
p26
ssS'api_fields'
p27
(dp28
g6
(dp29
S'html_filename'
p30
S'api_fields.html'
p31
sS'name'
p32
S'api/fields'
p33
sS'nums'
p34
g13
(g14
g15
NtRp35
(dp36
g18
I1
sg19
I0
sg20
I5
sg21
I0
sg22
I0
sg23
I1
sg24
I0
sbssg25
S'\xc5\t:\xeb\x8e\xc3\xc7\x16\x16\x06Y\xc5\xaf\x15\x05?'
p37
ssS'manage'
p38
(dp39
g6
(dp40
g30
S'manage.html'
p41
sg32
g38
sg34
g13
(g14
g15
NtRp42
(dp43
g18
I1
sg19
I0
sg20
I6
sg21
I0
sg22
I0
sg23
I0
sg24
I0
sbssg25
S'*\xf6\xd0R\xbe\xf4"\xa1`\xee~I@g"<'
p44
ssS'api_serializers'
p45
(dp46
g6
(dp47
g30
S'api_serializers.html'
p48
sg32
S'api/serializers'
p49
sg34
g13
(g14
g15
NtRp50
(dp51
g18
I1
sg19
I0
sg20
I62
sg21
I0
sg22
I0
sg23
I0
sg24
I0
sbssg25
S'\xa4\xc4\xc3\nu\xbd\rS1\x9b\xa8\xb7\xd6}\x00\xae'
p52
ssS'vote_models'
p53
(dp54
g6
(dp55
g30
S'vote_models.html'
p56
sg32
S'vote/models'
p57
sg34
g13
(g14
g15
NtRp58
(dp59
g18
I1
sg19
I0
sg20
I23
sg21
I0
sg22
I0
sg23
I2
sg24
I0
sbssg25
S'\xf0#\xf7Oq\xf9Y\x8fPp\x80\xc5m\xf7U+'
p60
ssS'bill_urls'
p61
(dp62
g6
(dp63
S'html_filename'
p64
S'bill_urls.html'
p65
sS'name'
p66
S'bill/urls'
p67
sS'nums'
p68
g13
(g14
g15
NtRp69
(dp70
g18
I1
sg19
I0
sg20
I3
sg21
I0
sg22
I0
sg23
I0
sg24
I0
sbssg25
S'\xfe\xa5S|\x1d\xe2\xb9\x8c\x85\x03j\xbe\xc1\xb9\x14='
p71
ssS'issue___init__'
p72
(dp73
g6
(dp74
g30
S'issue___init__.html'
p75
sg32
S'issue/__init__'
p76
sg34
g13
(g14
g15
NtRp77
(dp78
g18
I1
sg19
I0
sg20
I0
sg21
I0
sg22
I0
sg23
I0
sg24
I0
sbssg25
S'\xca\xf5\x9f\x7f\x88\xdfa\x831|T\x1d\xbc}\xa5v'
p79
ssS'legislator___init__'
p80
(dp81
g6
(dp82
g30
S'legislator___init__.html'
p83
sg32
S'legislator/__init__'
p84
sg34
g13
(g14
g15
NtRp85
(dp86
g18
I1
sg19
I0
sg20
I0
sg21
I0
sg22
I0
sg23
I0
sg24
I0
sbssg25
S'\xca\xf5\x9f\x7f\x88\xdfa\x831|T\x1d\xbc}\xa5v'
p87
ssS'ly_wsgi'
p88
(dp89
g6
(dp90
g30
S'ly_wsgi.html'
p91
sg32
S'ly/wsgi'
p92
sg34
g13
(g14
g15
NtRp93
(dp94
g18
I1
sg19
I0
sg20
I4
sg21
I0
sg22
I0
sg23
I0
sg24
I0
sbssg25
S'\x9f\xf5\x00\x13\x8f7\xc5J\x8e\xcet{xp\xfe|'
p95
ssS'bill_migrations_0002_auto__chg_field_ttsmotions_category__chg_field_ttsmotions_tags__chg_fi'
p96
(dp97
g6
(dp98
g30
S'bill_migrations_0002_auto__chg_field_ttsmotions_category__chg_field_ttsmotions_tags__chg_fi.html'
p99
sg32
S'bill/migrations/0002_auto__chg_field_ttsmotions_category__chg_field_ttsmotions_tags__chg_fi'
p100
sg34
g13
(g14
g15
NtRp101
(dp102
g18
I1
sg19
I0
sg20
I25
sg21
I0
sg22
I0
sg23
I8
sg24
I0
sbssg25
S'|\xa4_A\xaf\xe2\xae\x1f%\x00\xff\x10iA\xbb\x0f'
p103
ssS'api___init__'
p104
(dp105
g6
(dp106
g30
S'api___init__.html'
p107
sg32
S'api/__init__'
p108
sg34
g13
(g14
g15
NtRp109
(dp110
g18
I1
sg19
I0
sg20
I0
sg21
I0
sg22
I0
sg23
I0
sg24
I0
sbssg25
S'\xca\xf5\x9f\x7f\x88\xdfa\x831|T\x1d\xbc}\xa5v'
p111
ssS'bill_migrations___init__'
p112
(dp113
g6
(dp114
g30
S'bill_migrations___init__.html'
p115
sg32
S'bill/migrations/__init__'
p116
sg34
g13
(g14
g15
NtRp117
(dp118
g18
I1
sg19
I0
sg20
I0
sg21
I0
sg22
I0
sg23
I0
sg24
I0
sbssg25
S'\xca\xf5\x9f\x7f\x88\xdfa\x831|T\x1d\xbc}\xa5v'
p119
ssS'committees___init__'
p120
(dp121
g6
(dp122
g30
S'committees___init__.html'
p123
sg32
S'committees/__init__'
p124
sg34
g13
(g14
g15
NtRp125
(dp126
g18
I1
sg19
I0
sg20
I0
sg21
I0
sg22
I0
sg23
I0
sg24
I0
sbssg25
S'\xca\xf5\x9f\x7f\x88\xdfa\x831|T\x1d\xbc}\xa5v'
p127
ssS'vote_tests'
p128
(dp129
g6
(dp130
S'html_filename'
p131
S'vote_tests.html'
p132
sS'name'
p133
S'vote/tests'
p134
sS'nums'
p135
g13
(g14
g15
NtRp136
(dp137
g18
I1
sg19
I0
sg20
I9
sg21
I0
sg22
I0
sg23
I0
sg24
I0
sbssg25
S'b\xc2)\r\x9f\xe8\xe1\xd3:\xd1\xbf|\x92)\xbc\x81'
p138
ssS'ly_local_settings'
p139
(dp140
g6
(dp141
S'html_filename'
p142
S'ly_local_settings.html'
p143
sS'name'
p144
S'ly/local_settings'
p145
sS'nums'
p146
g13
(g14
g15
NtRp147
(dp148
g18
I1
sg19
I0
sg20
I2
sg21
I0
sg22
I0
sg23
I0
sg24
I0
sbssg25
S'\x89\x8e\xe3\xb5\xcf\xd4\xb3\xcbg\xfb\x08\xe6\xd7\x0b_\xc6'
p149
ssS'ly_test'
p150
(dp151
g6
(dp152
g142
S'ly_test.html'
p153
sg144
S'ly/test'
p154
sg146
g13
(g14
g15
NtRp155
(dp156
g18
I1
sg19
I0
sg20
I6
sg21
I0
sg22
I0
sg23
I0
sg24
I0
sbssg25
S'a\xe8e-\x08A\xcf\xabtn\x88\xea\xc6\xe6\xa9\x04'
p157
ssS'issue_models'
p158
(dp159
g6
(dp160
g30
S'issue_models.html'
p161
sg32
S'issue/models'
p162
sg34
g13
(g14
g15
NtRp163
(dp164
g18
I1
sg19
I0
sg20
I36
sg21
I0
sg22
I0
sg23
I2
sg24
I0
sbssg25
S'`\x04\x1b\xd7\x14+\x13}\xfd\xc3dyk\x1b\xf8\x11'
p165
ssS'legislator_urls'
p166
(dp167
g6
(dp168
S'html_filename'
p169
S'legislator_urls.html'
p170
sS'name'
p171
S'legislator/urls'
p172
sS'nums'
p173
g13
(g14
g15
NtRp174
(dp175
g18
I1
sg19
I0
sg20
I3
sg21
I0
sg22
I0
sg23
I0
sg24
I0
sbssg25
S'\xe6\xe64C\xccS6\x86\xd4\xb7\xf0@\xa0v\xa1o'
p176
ssS'commontag_templatetags_ly_extras'
p177
(dp178
g6
(dp179
S'html_filename'
p180
S'commontag_templatetags_ly_extras.html'
p181
sS'name'
p182
S'commontag/templatetags/ly_extras'
p183
sS'nums'
p184
g13
(g14
g15
NtRp185
(dp186
g18
I1
sg19
I0
sg20
I23
sg21
I0
sg22
I0
sg23
I7
sg24
I0
sbssg25
S'\xe7\xd0\xa1*}\xf9\x89\xd3\xb4\xb5 \xfd\n\xc6/+'
p187
ssS'commontag_tests'
p188
(dp189
g6
(dp190
g30
S'commontag_tests.html'
p191
sg32
S'commontag/tests'
p192
sg34
g13
(g14
g15
NtRp193
(dp194
g18
I1
sg19
I0
sg20
I4
sg21
I0
sg22
I0
sg23
I0
sg24
I0
sbssg25
S'\xe5\xc7X\x04rgg\x8a\x08\x14\xaa\xc0@\xc2\x8b\x97'
p195
ssS'issue_urls'
p196
(dp197
g6
(dp198
g30
S'issue_urls.html'
p199
sg32
S'issue/urls'
p200
sg34
g13
(g14
g15
NtRp201
(dp202
g18
I1
sg19
I0
sg20
I3
sg21
I0
sg22
I0
sg23
I0
sg24
I0
sbssg25
S'\x95\xf7:x#\x17N\xfcJC$g\xf2\xeb\xe4e'
p203
ssS'api_views'
p204
(dp205
g6
(dp206
g30
S'api_views.html'
p207
sg32
S'api/views'
p208
sg34
g13
(g14
g15
NtRp209
(dp210
g18
I1
sg19
I0
sg20
I62
sg21
I0
sg22
I0
sg23
I0
sg24
I0
sbssg25
S'\xb6$[\xf8[\x03}!j\xde6\xc8\x02\xc9\x06>'
p211
ssS'commontag_views'
p212
(dp213
g6
(dp214
g30
S'commontag_views.html'
p215
sg32
S'commontag/views'
p216
sg34
g13
(g14
g15
NtRp217
(dp218
g18
I1
sg19
I0
sg20
I0
sg21
I0
sg22
I0
sg23
I0
sg24
I0
sbssg25
S'\xbb\xe8\xc1Q\x1b;\x06\x08\xf4\n[\xbf\x901v\x0e'
p219
ssS'issue_tests'
p220
(dp221
g6
(dp222
g30
S'issue_tests.html'
p223
sg32
S'issue/tests'
p224
sg34
g13
(g14
g15
NtRp225
(dp226
g18
I1
sg19
I0
sg20
I4
sg21
I0
sg22
I0
sg23
I0
sg24
I0
sbssg25
S'\xe5\xc7X\x04rgg\x8a\x08\x14\xaa\xc0@\xc2\x8b\x97'
p227
ssS'bill___init__'
p228
(dp229
g6
(dp230
g30
S'bill___init__.html'
p231
sg32
S'bill/__init__'
p232
sg34
g13
(g14
g15
NtRp233
(dp234
g18
I1
sg19
I0
sg20
I0
sg21
I0
sg22
I0
sg23
I0
sg24
I0
sbssg25
S'\xca\xf5\x9f\x7f\x88\xdfa\x831|T\x1d\xbc}\xa5v'
p235
ssS'legislator_tests'
p236
(dp237
g6
(dp238
S'html_filename'
p239
S'legislator_tests.html'
p240
sS'name'
p241
S'legislator/tests'
p242
sS'nums'
p243
g13
(g14
g15
NtRp244
(dp245
g18
I1
sg19
I0
sg20
I38
sg21
I0
sg22
I0
sg23
I0
sg24
I0
sbssg25
S'P:\xcfaj\xe8\xc8\xbb\x94\t\xf7l"\t\xe6S'
p246
ssS'bill_migrations_0001_initial'
p247
(dp248
g6
(dp249
g30
S'bill_migrations_0001_initial.html'
p250
sg32
S'bill/migrations/0001_initial'
p251
sg34
g13
(g14
g15
NtRp252
(dp253
g18
I1
sg19
I0
sg20
I24
sg21
I0
sg22
I0
sg23
I5
sg24
I0
sbssg25
S'?*\x92\x0f\xa2\x9f\x18\x82\x9e6\t\x84\xbd\xa8*\x80'
p254
ssS'committees_models'
p255
(dp256
g6
(dp257
g30
S'committees_models.html'
p258
sg32
S'committees/models'
p259
sg34
g13
(g14
g15
NtRp260
(dp261
g18
I1
sg19
I0
sg20
I13
sg21
I0
sg22
I0
sg23
I1
sg24
I0
sbssg25
S"\xaa]S8:\x82's&7\x06\x1a\x1b\x06\xc0;"
p262
ssS'legislator_views'
p263
(dp264
g6
(dp265
g142
S'legislator_views.html'
p266
sg144
S'legislator/views'
p267
sg146
g13
(g14
g15
NtRp268
(dp269
g18
I1
sg19
I0
sg20
I204
sg21
I0
sg22
I0
sg23
I65
sg24
I0
sbssg25
S'\xcft"\x91\xbc-t\x97\xcd \x82\xf1W\x86\x9b\xae'
p270
ssS'legislator_context_processor'
p271
(dp272
g6
(dp273
g30
S'legislator_context_processor.html'
p274
sg32
S'legislator/context_processor'
p275
sg34
g13
(g14
g15
NtRp276
(dp277
g18
I1
sg19
I0
sg20
I14
sg21
I0
sg22
I0
sg23
I0
sg24
I0
sbssg25
S'\xdfU\xb4\x1a\x19O\x8e\xf2.\xc5\xaf\xb7\xa9\xda\xf2#'
p278
ssS'search_views'
p279
(dp280
g6
(dp281
g8
S'search_views.html'
p282
sg10
S'search/views'
p283
sg12
g13
(g14
g15
NtRp284
(dp285
g18
I1
sg19
I0
sg20
I16
sg21
I0
sg22
I0
sg23
I6
sg24
I0
sbssg25
S'\xf3h\x03U\x897\xba\xba1\xb2\xbbe\xbfKj\xfc'
p286
ssS'ly_settings'
p287
(dp288
g6
(dp289
S'html_filename'
p290
S'ly_settings.html'
p291
sS'name'
p292
S'ly/settings'
p293
sS'nums'
p294
g13
(g14
g15
NtRp295
(dp296
g18
I1
sg19
I0
sg20
I35
sg21
I0
sg22
I0
sg23
I1
sg24
I0
sbssg25
S'\xa8\xb3\x99\xa7\x02\x08d\x1a6Y\xf0\x87\xe9\xba\x99\x8a'
p297
ssS'bill_views'
p298
(dp299
g6
(dp300
S'html_filename'
p301
S'bill_views.html'
p302
sS'name'
p303
S'bill/views'
p304
sS'nums'
p305
g13
(g14
g15
NtRp306
(dp307
g18
I1
sg19
I0
sg20
I22
sg21
I0
sg22
I0
sg23
I3
sg24
I0
sbssg25
S'\xc1!\x8a\x08\xed77\xba\xbaEe{\xdd\xef\xa1\xc8'
p308
ssS'proposal_tests'
p309
(dp310
g6
(dp311
g301
S'proposal_tests.html'
p312
sg303
S'proposal/tests'
p313
sg305
g13
(g14
g15
NtRp314
(dp315
g18
I1
sg19
I0
sg20
I8
sg21
I0
sg22
I0
sg23
I0
sg24
I0
sbssg25
S'\xf0f\x82\xc4\x1a\xe7\xe60\xb0\xa2\xf9`\xf7L&W'
p316
ssS'sittings_models'
p317
(dp318
g6
(dp319
g30
S'sittings_models.html'
p320
sg32
S'sittings/models'
p321
sg34
g13
(g14
g15
NtRp322
(dp323
g18
I1
sg19
I0
sg20
I10
sg21
I0
sg22
I0
sg23
I1
sg24
I0
sbssg25
S'\x80wh\xd6\xd8\xef-<\x94j\x9f\x11i\x08\x8d\xd2'
p324
ssS'proposal_models'
p325
(dp326
g6
(dp327
g30
S'proposal_models.html'
p328
sg32
S'proposal/models'
p329
sg34
g13
(g14
g15
NtRp330
(dp331
g18
I1
sg19
I0
sg20
I21
sg21
I0
sg22
I0
sg23
I3
sg24
I0
sbssg25
S't\xb4\xc8\xeb\xec\xaa\xb9Dn1\x88\x9e\xc0I<\xc8'
p332
ssS'proposal___init__'
p333
(dp334
g6
(dp335
g30
S'proposal___init__.html'
p336
sg32
S'proposal/__init__'
p337
sg34
g13
(g14
g15
NtRp338
(dp339
g18
I1
sg19
I0
sg20
I0
sg21
I0
sg22
I0
sg23
I0
sg24
I0
sbssg25
S'\xca\xf5\x9f\x7f\x88\xdfa\x831|T\x1d\xbc}\xa5v'
p340
ssS'api_tests'
p341
(dp342
g6
(dp343
g30
S'api_tests.html'
p344
sg32
S'api/tests'
p345
sg34
g13
(g14
g15
NtRp346
(dp347
g18
I1
sg19
I0
sg20
I4
sg21
I0
sg22
I0
sg23
I0
sg24
I0
sbssg25
S'\xe5\xc7X\x04rgg\x8a\x08\x14\xaa\xc0@\xc2\x8b\x97'
p348
ssS'ly_views'
p349
(dp350
g6
(dp351
S'html_filename'
p352
S'ly_views.html'
p353
sS'name'
p354
S'ly/views'
p355
sS'nums'
p356
g13
(g14
g15
NtRp357
(dp358
g18
I1
sg19
I0
sg20
I11
sg21
I0
sg22
I0
sg23
I0
sg24
I0
sbssg25
S'\xb9\x99\x8e\x04\x0f\xd7\xf1\x89l\x0f\xfe\x19Od\xfb\x82'
p359
ssS'ly_urls'
p360
(dp361
g6
(dp362
g290
S'ly_urls.html'
p363
sg292
S'ly/urls'
p364
sg294
g13
(g14
g15
NtRp365
(dp366
g18
I1
sg19
I0
sg20
I21
sg21
I0
sg22
I0
sg23
I0
sg24
I0
sbssg25
S'\x00\xe3\x01\xecK\x9c,\x12q\xf9\x1e+\xc6\x04\xa6$'
p367
ssS'proposal_views'
p368
(dp369
g6
(dp370
g301
S'proposal_views.html'
p371
sg303
S'proposal/views'
p372
sg305
g13
(g14
g15
NtRp373
(dp374
g18
I1
sg19
I0
sg20
I17
sg21
I0
sg22
I0
sg23
I3
sg24
I0
sbssg25
S'/6\x192LI\xe2\x93~/\x19\xa2!\xd7\\\xd6'
p375
ssS'bill_tests'
p376
(dp377
g6
(dp378
g301
S'bill_tests.html'
p379
sg303
S'bill/tests'
p380
sg305
g13
(g14
g15
NtRp381
(dp382
g18
I1
sg19
I0
sg20
I9
sg21
I0
sg22
I0
sg23
I0
sg24
I0
sbssg25
S'\xa5\xe4\t\xdcQ\x8d~\xb1\x87\xd4r\x9aP\x97~^'
p383
ssS'legislator_admin'
p384
(dp385
g6
(dp386
g290
S'legislator_admin.html'
p387
sg292
S'legislator/admin'
p388
sg294
g13
(g14
g15
NtRp389
(dp390
g18
I1
sg19
I0
sg20
I14
sg21
I0
sg22
I0
sg23
I0
sg24
I0
sbssg25
S'j_a6\xfe#\xe1\x14\x00j_\xd4\x0e)\xe8Y'
p391
ssS'legislator_models'
p392
(dp393
g6
(dp394
g169
S'legislator_models.html'
p395
sg171
S'legislator/models'
p396
sg173
g13
(g14
g15
NtRp397
(dp398
g18
I1
sg19
I0
sg20
I73
sg21
I0
sg22
I0
sg23
I6
sg24
I0
sbssg25
S"J'\x0cI\x04\xc6\xb3\x0f]N(\xc7\xb8\xd9\xa1\x9e"
p399
ssS'search_tests'
p400
(dp401
g6
(dp402
g30
S'search_tests.html'
p403
sg32
S'search/tests'
p404
sg34
g13
(g14
g15
NtRp405
(dp406
g18
I1
sg19
I0
sg20
I4
sg21
I0
sg22
I0
sg23
I0
sg24
I0
sbssg25
S'\xe5\xc7X\x04rgg\x8a\x08\x14\xaa\xc0@\xc2\x8b\x97'
p407
ssS'sittings___init__'
p408
(dp409
g6
(dp410
g30
S'sittings___init__.html'
p411
sg32
S'sittings/__init__'
p412
sg34
g13
(g14
g15
NtRp413
(dp414
g18
I1
sg19
I0
sg20
I0
sg21
I0
sg22
I0
sg23
I0
sg24
I0
sbssg25
S'\xca\xf5\x9f\x7f\x88\xdfa\x831|T\x1d\xbc}\xa5v'
p415
ssS'commontag___init__'
p416
(dp417
g6
(dp418
g30
S'commontag___init__.html'
p419
sg32
S'commontag/__init__'
p420
sg34
g13
(g14
g15
NtRp421
(dp422
g18
I1
sg19
I0
sg20
I0
sg21
I0
sg22
I0
sg23
I0
sg24
I0
sbssg25
S'\xca\xf5\x9f\x7f\x88\xdfa\x831|T\x1d\xbc}\xa5v'
p423
ssS'ly___init__'
p424
(dp425
g6
(dp426
g30
S'ly___init__.html'
p427
sg32
S'ly/__init__'
p428
sg34
g13
(g14
g15
NtRp429
(dp430
g18
I1
sg19
I0
sg20
I0
sg21
I0
sg22
I0
sg23
I0
sg24
I0
sbssg25
S'\xca\xf5\x9f\x7f\x88\xdfa\x831|T\x1d\xbc}\xa5v'
p431
ssS'sittings_views'
p432
(dp433
g6
(dp434
g30
S'sittings_views.html'
p435
sg32
S'sittings/views'
p436
sg34
g13
(g14
g15
NtRp437
(dp438
g18
I1
sg19
I0
sg20
I0
sg21
I0
sg22
I0
sg23
I0
sg24
I0
sbssg25
S'\xbb\xe8\xc1Q\x1b;\x06\x08\xf4\n[\xbf\x901v\x0e'
p439
ssS'proposal_urls'
p440
(dp441
g6
(dp442
g64
S'proposal_urls.html'
p443
sg66
S'proposal/urls'
p444
sg68
g13
(g14
g15
NtRp445
(dp446
g18
I1
sg19
I0
sg20
I3
sg21
I0
sg22
I0
sg23
I0
sg24
I0
sbssg25
S'\xd00\x19\x95\xa4;\xbf;gb\xa7\xac\x83\xe55\xea'
p447
ssS'bill_models'
p448
(dp449
g6
(dp450
g30
S'bill_models.html'
p451
sg32
S'bill/models'
p452
sg34
g13
(g14
g15
NtRp453
(dp454
g18
I1
sg19
I0
sg20
I59
sg21
I0
sg22
I0
sg23
I3
sg24
I0
sbssg25
S' \xb9\xb3\xd8C\xa4\xc5\xdbq@\xe9wn7\xcb\xa7'
p455
ssS'bill_migrations_0003_auto__chg_field_ttsmotions_category__chg_field_ttsmotions_tags__chg_fi'
p456
(dp457
g6
(dp458
g30
S'bill_migrations_0003_auto__chg_field_ttsmotions_category__chg_field_ttsmotions_tags__chg_fi.html'
p459
sg32
S'bill/migrations/0003_auto__chg_field_ttsmotions_category__chg_field_ttsmotions_tags__chg_fi'
p460
sg34
g13
(g14
g15
NtRp461
(dp462
g18
I1
sg19
I0
sg20
I23
sg21
I0
sg22
I0
sg23
I7
sg24
I0
sbssg25
S'\xb1\xa2EE\xc1c(\xa4\x99\xee\xc4\xa3\xcdo\xf6\xe8'
p463
ssS'commontag_templatetags___init__'
p464
(dp465
g6
(dp466
g30
S'commontag_templatetags___init__.html'
p467
sg32
S'commontag/templatetags/__init__'
p468
sg34
g13
(g14
g15
NtRp469
(dp470
g18
I1
sg19
I0
sg20
I0
sg21
I0
sg22
I0
sg23
I0
sg24
I0
sbssg25
S'\xca\xf5\x9f\x7f\x88\xdfa\x831|T\x1d\xbc}\xa5v'
p471
ssS'search_models'
p472
(dp473
g6
(dp474
g30
S'search_models.html'
p475
sg32
S'search/models'
p476
sg34
g13
(g14
g15
NtRp477
(dp478
g18
I1
sg19
I0
sg20
I8
sg21
I0
sg22
I0
sg23
I1
sg24
I0
sbssg25
S'\xd6\x1d\xdag\x97-\x9fX\x1d\xd0o\xfb\xd9c\xa3\xa0'
p479
ssS'vote___init__'
p480
(dp481
g6
(dp482
g30
S'vote___init__.html'
p483
sg32
S'vote/__init__'
p484
sg34
g13
(g14
g15
NtRp485
(dp486
g18
I1
sg19
I0
sg20
I0
sg21
I0
sg22
I0
sg23
I0
sg24
I0
sbssg25
S'\xca\xf5\x9f\x7f\x88\xdfa\x831|T\x1d\xbc}\xa5v'
p487
ssS'commontag_models'
p488
(dp489
g6
(dp490
g30
S'commontag_models.html'
p491
sg32
S'commontag/models'
p492
sg34
g13
(g14
g15
NtRp493
(dp494
g18
I1
sg19
I0
sg20
I1
sg21
I0
sg22
I0
sg23
I0
sg24
I0
sbssg25
S'\xd5M\xc7\x8c\x14P\xcc\xf0D\xe4\x95\xf6\x03`\xf1a'
p495
ssS'committees_views'
p496
(dp497
g6
(dp498
g30
S'committees_views.html'
p499
sg32
S'committees/views'
p500
sg34
g13
(g14
g15
NtRp501
(dp502
g18
I1
sg19
I0
sg20
I0
sg21
I0
sg22
I0
sg23
I0
sg24
I0
sbssg25
S'\xbb\xe8\xc1Q\x1b;\x06\x08\xf4\n[\xbf\x901v\x0e'
p503
ssS'committees_tests'
p504
(dp505
g6
(dp506
g30
S'committees_tests.html'
p507
sg32
S'committees/tests'
p508
sg34
g13
(g14
g15
NtRp509
(dp510
g18
I1
sg19
I0
sg20
I4
sg21
I0
sg22
I0
sg23
I0
sg24
I0
sbssg25
S'\xe5\xc7X\x04rgg\x8a\x08\x14\xaa\xc0@\xc2\x8b\x97'
p511
ssS'vote_urls'
p512
(dp513
g6
(dp514
g64
S'vote_urls.html'
p515
sg66
S'vote/urls'
p516
sg68
g13
(g14
g15
NtRp517
(dp518
g18
I1
sg19
I0
sg20
I3
sg21
I0
sg22
I0
sg23
I0
sg24
I0
sbssg25
S"\x8e\x12\x10W\xb66\xff\x92\n{v'\x9d\xf6\x12\xce"
p519
ssS'search___init__'
p520
(dp521
g6
(dp522
g30
S'search___init__.html'
p523
sg32
S'search/__init__'
p524
sg34
g13
(g14
g15
NtRp525
(dp526
g18
I1
sg19
I0
sg20
I0
sg21
I0
sg22
I0
sg23
I0
sg24
I0
sbssg25
S'\xca\xf5\x9f\x7f\x88\xdfa\x831|T\x1d\xbc}\xa5v'
p527
ssS'issue_views'
p528
(dp529
g6
(dp530
g30
S'issue_views.html'
p531
sg32
S'issue/views'
p532
sg34
g13
(g14
g15
NtRp533
(dp534
g18
I1
sg19
I0
sg20
I14
sg21
I0
sg22
I0
sg23
I9
sg24
I0
sbssg25
S'+-\x92p{\xa1N+\xbd\x13\x94\xc3<v\xbbw'
p535
ssS'sittings_tests'
p536
(dp537
g6
(dp538
g30
S'sittings_tests.html'
p539
sg32
S'sittings/tests'
p540
sg34
g13
(g14
g15
NtRp541
(dp542
g18
I1
sg19
I0
sg20
I4
sg21
I0
sg22
I0
sg23
I0
sg24
I0
sbssg25
S'\xe5\xc7X\x04rgg\x8a\x08\x14\xaa\xc0@\xc2\x8b\x97'
p543
sssS'version'
p544
S'3.7.1'
p545
sS'settings'
p546
S'\x1cL\x8e\xcf\xc6\xec\xd9\xf6fM\xf4k4\xf5-\xd8'
p547
sS'format'
p548
I1
s.