(dp1
S'files'
p2
(dp3
S'vote_views'
p4
(dp5
S'index'
p6
(dp7
S'html_filename'
p8
S'vote_views.html'
p9
sS'name'
p10
S'vote/views'
p11
sS'nums'
p12
ccopy_reg
_reconstructor
p13
(ccoverage.results
Numbers
p14
c__builtin__
object
p15
NtRp16
(dp17
S'n_files'
p18
I1
sS'n_branches'
p19
I0
sS'n_statements'
p20
I24
sS'n_excluded'
p21
I0
sS'n_partial_branches'
p22
I0
sS'n_missing'
p23
I7
sS'n_missing_branches'
p24
I0
sbssS'hash'
p25
S'\xddUu\x16J]\x1d\x13\xbd\xe38Q.\x96\xe3/'
p26
ssS'api_fields'
p27
(dp28
g6
(dp29
S'html_filename'
p30
S'api_fields.html'
p31
sS'name'
p32
S'api/fields'
p33
sS'nums'
p34
g13
(g14
g15
NtRp35
(dp36
g18
I1
sg19
I0
sg20
I5
sg21
I0
sg22
I0
sg23
I1
sg24
I0
sbssg25
S'\xc5\t:\xeb\x8e\xc3\xc7\x16\x16\x06Y\xc5\xaf\x15\x05?'
p37
ssS'manage'
p38
(dp39
g6
(dp40
g30
S'manage.html'
p41
sg32
g38
sg34
g13
(g14
g15
NtRp42
(dp43
g18
I1
sg19
I0
sg20
I6
sg21
I0
sg22
I0
sg23
I0
sg24
I0
sbssg25
S'*\xf6\xd0R\xbe\xf4"\xa1`\xee~I@g"<'
p44
ssS'api_serializers'
p45
(dp46
g6
(dp47
g30
S'api_serializers.html'
p48
sg32
S'api/serializers'
p49
sg34
g13
(g14
g15
NtRp50
(dp51
g18
I1
sg19
I0
sg20
I62
sg21
I0
sg22
I0
sg23
I0
sg24
I0
sbssg25
S'\xa4\xc4\xc3\nu\xbd\rS1\x9b\xa8\xb7\xd6}\x00\xae'
p52
ssS'vote_models'
p53
(dp54
g6
(dp55
g30
S'vote_models.html'
p56
sg32
S'vote/models'
p57
sg34
g13
(g14
g15
NtRp58
(dp59
g18
I1
sg19
I0
sg20
I23
sg21
I0
sg22
I0
sg23
I2
sg24
I0
sbssg25
S'\xf0#\xf7Oq\xf9Y\x8fPp\x80\xc5m\xf7U+'
p60
ssS'commontag_templatetags___init__'
p61
(dp62
g6
(dp63
g30
S'commontag_templatetags___init__.html'
p64
sg32
S'commontag/templatetags/__init__'
p65
sg34
g13
(g14
g15
NtRp66
(dp67
g18
I1
sg19
I0
sg20
I0
sg21
I0
sg22
I0
sg23
I0
sg24
I0
sbssg25
S'\xca\xf5\x9f\x7f\x88\xdfa\x831|T\x1d\xbc}\xa5v'
p68
ssS'issue___init__'
p69
(dp70
g6
(dp71
g30
S'issue___init__.html'
p72
sg32
S'issue/__init__'
p73
sg34
g13
(g14
g15
NtRp74
(dp75
g18
I1
sg19
I0
sg20
I0
sg21
I0
sg22
I0
sg23
I0
sg24
I0
sbssg25
S'\xca\xf5\x9f\x7f\x88\xdfa\x831|T\x1d\xbc}\xa5v'
p76
ssS'legislator___init__'
p77
(dp78
g6
(dp79
g30
S'legislator___init__.html'
p80
sg32
S'legislator/__init__'
p81
sg34
g13
(g14
g15
NtRp82
(dp83
g18
I1
sg19
I0
sg20
I0
sg21
I0
sg22
I0
sg23
I0
sg24
I0
sbssg25
S'\xca\xf5\x9f\x7f\x88\xdfa\x831|T\x1d\xbc}\xa5v'
p84
ssS'ly_wsgi'
p85
(dp86
g6
(dp87
g30
S'ly_wsgi.html'
p88
sg32
S'ly/wsgi'
p89
sg34
g13
(g14
g15
NtRp90
(dp91
g18
I1
sg19
I0
sg20
I4
sg21
I0
sg22
I0
sg23
I0
sg24
I0
sbssg25
S'\x9f\xf5\x00\x13\x8f7\xc5J\x8e\xcet{xp\xfe|'
p92
ssS'issue_urls'
p93
(dp94
g6
(dp95
g30
S'issue_urls.html'
p96
sg32
S'issue/urls'
p97
sg34
g13
(g14
g15
NtRp98
(dp99
g18
I1
sg19
I0
sg20
I3
sg21
I0
sg22
I0
sg23
I0
sg24
I0
sbssg25
S'\x95\xf7:x#\x17N\xfcJC$g\xf2\xeb\xe4e'
p100
ssS'api___init__'
p101
(dp102
g6
(dp103
g30
S'api___init__.html'
p104
sg32
S'api/__init__'
p105
sg34
g13
(g14
g15
NtRp106
(dp107
g18
I1
sg19
I0
sg20
I0
sg21
I0
sg22
I0
sg23
I0
sg24
I0
sbssg25
S'\xca\xf5\x9f\x7f\x88\xdfa\x831|T\x1d\xbc}\xa5v'
p108
ssS'bill_migrations___init__'
p109
(dp110
g6
(dp111
g30
S'bill_migrations___init__.html'
p112
sg32
S'bill/migrations/__init__'
p113
sg34
g13
(g14
g15
NtRp114
(dp115
g18
I1
sg19
I0
sg20
I0
sg21
I0
sg22
I0
sg23
I0
sg24
I0
sbssg25
S'\xca\xf5\x9f\x7f\x88\xdfa\x831|T\x1d\xbc}\xa5v'
p116
ssS'committees___init__'
p117
(dp118
g6
(dp119
g30
S'committees___init__.html'
p120
sg32
S'committees/__init__'
p121
sg34
g13
(g14
g15
NtRp122
(dp123
g18
I1
sg19
I0
sg20
I0
sg21
I0
sg22
I0
sg23
I0
sg24
I0
sbssg25
S'\xca\xf5\x9f\x7f\x88\xdfa\x831|T\x1d\xbc}\xa5v'
p124
ssS'issue_tests'
p125
(dp126
g6
(dp127
g30
S'issue_tests.html'
p128
sg32
S'issue/tests'
p129
sg34
g13
(g14
g15
NtRp130
(dp131
g18
I1
sg19
I0
sg20
I4
sg21
I0
sg22
I0
sg23
I0
sg24
I0
sbssg25
S'\xe5\xc7X\x04rgg\x8a\x08\x14\xaa\xc0@\xc2\x8b\x97'
p132
ssS'ly_local_settings'
p133
(dp134
g6
(dp135
S'html_filename'
p136
S'ly_local_settings.html'
p137
sS'name'
p138
S'ly/local_settings'
p139
sS'nums'
p140
g13
(g14
g15
NtRp141
(dp142
g18
I1
sg19
I0
sg20
I2
sg21
I0
sg22
I0
sg23
I0
sg24
I0
sbssg25
S'\xdf\x82\x85\x17P^\x18\x01\x86H\xa2\xf8\x18\xd3\xd8\xe7'
p143
ssS'ly_test'
p144
(dp145
g6
(dp146
g30
S'ly_test.html'
p147
sg32
S'ly/test'
p148
sg34
g13
(g14
g15
NtRp149
(dp150
g18
I1
sg19
I0
sg20
I5
sg21
I0
sg22
I0
sg23
I0
sg24
I0
sbssg25
S'\xf4\xb8\x06\xa1 \x19\xb9\xbf\xff5\xc1\xce\xdb\xe1\x9f\x9a'
p151
ssS'proposal___init__'
p152
(dp153
g6
(dp154
g30
S'proposal___init__.html'
p155
sg32
S'proposal/__init__'
p156
sg34
g13
(g14
g15
NtRp157
(dp158
g18
I1
sg19
I0
sg20
I0
sg21
I0
sg22
I0
sg23
I0
sg24
I0
sbssg25
S'\xca\xf5\x9f\x7f\x88\xdfa\x831|T\x1d\xbc}\xa5v'
p159
ssS'legislator_urls'
p160
(dp161
g6
(dp162
S'html_filename'
p163
S'legislator_urls.html'
p164
sS'name'
p165
S'legislator/urls'
p166
sS'nums'
p167
g13
(g14
g15
NtRp168
(dp169
g18
I1
sg19
I0
sg20
I3
sg21
I0
sg22
I0
sg23
I0
sg24
I0
sbssg25
S'\xe6\xe64C\xccS6\x86\xd4\xb7\xf0@\xa0v\xa1o'
p170
ssS'bill___init__'
p171
(dp172
g6
(dp173
g30
S'bill___init__.html'
p174
sg32
S'bill/__init__'
p175
sg34
g13
(g14
g15
NtRp176
(dp177
g18
I1
sg19
I0
sg20
I0
sg21
I0
sg22
I0
sg23
I0
sg24
I0
sbssg25
S'\xca\xf5\x9f\x7f\x88\xdfa\x831|T\x1d\xbc}\xa5v'
p178
ssS'commontag_tests'
p179
(dp180
g6
(dp181
g30
S'commontag_tests.html'
p182
sg32
S'commontag/tests'
p183
sg34
g13
(g14
g15
NtRp184
(dp185
g18
I1
sg19
I0
sg20
I4
sg21
I0
sg22
I0
sg23
I0
sg24
I0
sbssg25
S'\xe5\xc7X\x04rgg\x8a\x08\x14\xaa\xc0@\xc2\x8b\x97'
p186
ssS'bill_migrations_0002_auto__chg_field_ttsmotions_category__chg_field_ttsmotions_tags__chg_fi'
p187
(dp188
g6
(dp189
g30
S'bill_migrations_0002_auto__chg_field_ttsmotions_category__chg_field_ttsmotions_tags__chg_fi.html'
p190
sg32
S'bill/migrations/0002_auto__chg_field_ttsmotions_category__chg_field_ttsmotions_tags__chg_fi'
p191
sg34
g13
(g14
g15
NtRp192
(dp193
g18
I1
sg19
I0
sg20
I25
sg21
I0
sg22
I0
sg23
I8
sg24
I0
sbssg25
S'|\xa4_A\xaf\xe2\xae\x1f%\x00\xff\x10iA\xbb\x0f'
p194
ssS'api_views'
p195
(dp196
g6
(dp197
g30
S'api_views.html'
p198
sg32
S'api/views'
p199
sg34
g13
(g14
g15
NtRp200
(dp201
g18
I1
sg19
I0
sg20
I62
sg21
I0
sg22
I0
sg23
I0
sg24
I0
sbssg25
S'\xb6$[\xf8[\x03}!j\xde6\xc8\x02\xc9\x06>'
p202
ssS'commontag_views'
p203
(dp204
g6
(dp205
g30
S'commontag_views.html'
p206
sg32
S'commontag/views'
p207
sg34
g13
(g14
g15
NtRp208
(dp209
g18
I1
sg19
I0
sg20
I0
sg21
I0
sg22
I0
sg23
I0
sg24
I0
sbssg25
S'\xbb\xe8\xc1Q\x1b;\x06\x08\xf4\n[\xbf\x901v\x0e'
p210
ssS'vote_tests'
p211
(dp212
g6
(dp213
S'html_filename'
p214
S'vote_tests.html'
p215
sS'name'
p216
S'vote/tests'
p217
sS'nums'
p218
g13
(g14
g15
NtRp219
(dp220
g18
I1
sg19
I0
sg20
I9
sg21
I0
sg22
I0
sg23
I0
sg24
I0
sbssg25
S'b\xc2)\r\x9f\xe8\xe1\xd3:\xd1\xbf|\x92)\xbc\x81'
p221
ssS'commontag_templatetags_ly_extras'
p222
(dp223
g6
(dp224
S'html_filename'
p225
S'commontag_templatetags_ly_extras.html'
p226
sS'name'
p227
S'commontag/templatetags/ly_extras'
p228
sS'nums'
p229
g13
(g14
g15
NtRp230
(dp231
g18
I1
sg19
I0
sg20
I23
sg21
I0
sg22
I0
sg23
I7
sg24
I0
sbssg25
S'\xe7\xd0\xa1*}\xf9\x89\xd3\xb4\xb5 \xfd\n\xc6/+'
p232
ssS'legislator_tests'
p233
(dp234
g6
(dp235
S'html_filename'
p236
S'legislator_tests.html'
p237
sS'name'
p238
S'legislator/tests'
p239
sS'nums'
p240
g13
(g14
g15
NtRp241
(dp242
g18
I1
sg19
I0
sg20
I38
sg21
I0
sg22
I0
sg23
I0
sg24
I0
sbssg25
S'P:\xcfaj\xe8\xc8\xbb\x94\t\xf7l"\t\xe6S'
p243
ssS'bill_migrations_0001_initial'
p244
(dp245
g6
(dp246
g30
S'bill_migrations_0001_initial.html'
p247
sg32
S'bill/migrations/0001_initial'
p248
sg34
g13
(g14
g15
NtRp249
(dp250
g18
I1
sg19
I0
sg20
I24
sg21
I0
sg22
I0
sg23
I5
sg24
I0
sbssg25
S'?*\x92\x0f\xa2\x9f\x18\x82\x9e6\t\x84\xbd\xa8*\x80'
p251
ssS'search_tests'
p252
(dp253
g6
(dp254
g30
S'search_tests.html'
p255
sg32
S'search/tests'
p256
sg34
g13
(g14
g15
NtRp257
(dp258
g18
I1
sg19
I0
sg20
I4
sg21
I0
sg22
I0
sg23
I0
sg24
I0
sbssg25
S'\xe5\xc7X\x04rgg\x8a\x08\x14\xaa\xc0@\xc2\x8b\x97'
p259
ssS'legislator_views'
p260
(dp261
g6
(dp262
g8
S'legislator_views.html'
p263
sg10
S'legislator/views'
p264
sg12
g13
(g14
g15
NtRp265
(dp266
g18
I1
sg19
I0
sg20
I204
sg21
I0
sg22
I0
sg23
I65
sg24
I0
sbssg25
S'\x01\xd4\x14\xc9&#*QY^\xf0\xc9\xc4>\xd6\xd1'
p267
ssS'legislator_context_processor'
p268
(dp269
g6
(dp270
g30
S'legislator_context_processor.html'
p271
sg32
S'legislator/context_processor'
p272
sg34
g13
(g14
g15
NtRp273
(dp274
g18
I1
sg19
I0
sg20
I14
sg21
I0
sg22
I0
sg23
I0
sg24
I0
sbssg25
S'\xdfU\xb4\x1a\x19O\x8e\xf2.\xc5\xaf\xb7\xa9\xda\xf2#'
p275
ssS'search_views'
p276
(dp277
g6
(dp278
g8
S'search_views.html'
p279
sg10
S'search/views'
p280
sg12
g13
(g14
g15
NtRp281
(dp282
g18
I1
sg19
I0
sg20
I16
sg21
I0
sg22
I0
sg23
I6
sg24
I0
sbssg25
S'\xf3h\x03U\x897\xba\xba1\xb2\xbbe\xbfKj\xfc'
p283
ssS'ly_settings'
p284
(dp285
g6
(dp286
S'html_filename'
p287
S'ly_settings.html'
p288
sS'name'
p289
S'ly/settings'
p290
sS'nums'
p291
g13
(g14
g15
NtRp292
(dp293
g18
I1
sg19
I0
sg20
I35
sg21
I0
sg22
I0
sg23
I1
sg24
I0
sbssg25
S'\xa8\xb3\x99\xa7\x02\x08d\x1a6Y\xf0\x87\xe9\xba\x99\x8a'
p294
ssS'bill_views'
p295
(dp296
g6
(dp297
S'html_filename'
p298
S'bill_views.html'
p299
sS'name'
p300
S'bill/views'
p301
sS'nums'
p302
g13
(g14
g15
NtRp303
(dp304
g18
I1
sg19
I0
sg20
I22
sg21
I0
sg22
I0
sg23
I3
sg24
I0
sbssg25
S'\xc1!\x8a\x08\xed77\xba\xbaEe{\xdd\xef\xa1\xc8'
p305
ssS'proposal_tests'
p306
(dp307
g6
(dp308
g298
S'proposal_tests.html'
p309
sg300
S'proposal/tests'
p310
sg302
g13
(g14
g15
NtRp311
(dp312
g18
I1
sg19
I0
sg20
I8
sg21
I0
sg22
I0
sg23
I0
sg24
I0
sbssg25
S'\xf0f\x82\xc4\x1a\xe7\xe60\xb0\xa2\xf9`\xf7L&W'
p313
ssS'sittings_models'
p314
(dp315
g6
(dp316
g30
S'sittings_models.html'
p317
sg32
S'sittings/models'
p318
sg34
g13
(g14
g15
NtRp319
(dp320
g18
I1
sg19
I0
sg20
I10
sg21
I0
sg22
I0
sg23
I1
sg24
I0
sbssg25
S'\x80wh\xd6\xd8\xef-<\x94j\x9f\x11i\x08\x8d\xd2'
p321
ssS'proposal_models'
p322
(dp323
g6
(dp324
g30
S'proposal_models.html'
p325
sg32
S'proposal/models'
p326
sg34
g13
(g14
g15
NtRp327
(dp328
g18
I1
sg19
I0
sg20
I21
sg21
I0
sg22
I0
sg23
I3
sg24
I0
sbssg25
S't\xb4\xc8\xeb\xec\xaa\xb9Dn1\x88\x9e\xc0I<\xc8'
p329
ssS'issue_models'
p330
(dp331
g6
(dp332
g30
S'issue_models.html'
p333
sg32
S'issue/models'
p334
sg34
g13
(g14
g15
NtRp335
(dp336
g18
I1
sg19
I0
sg20
I36
sg21
I0
sg22
I0
sg23
I2
sg24
I0
sbssg25
S'`\x04\x1b\xd7\x14+\x13}\xfd\xc3dyk\x1b\xf8\x11'
p337
ssS'api_tests'
p338
(dp339
g6
(dp340
g30
S'api_tests.html'
p341
sg32
S'api/tests'
p342
sg34
g13
(g14
g15
NtRp343
(dp344
g18
I1
sg19
I0
sg20
I4
sg21
I0
sg22
I0
sg23
I0
sg24
I0
sbssg25
S'\xe5\xc7X\x04rgg\x8a\x08\x14\xaa\xc0@\xc2\x8b\x97'
p345
ssS'ly_views'
p346
(dp347
g6
(dp348
S'html_filename'
p349
S'ly_views.html'
p350
sS'name'
p351
S'ly/views'
p352
sS'nums'
p353
g13
(g14
g15
NtRp354
(dp355
g18
I1
sg19
I0
sg20
I11
sg21
I0
sg22
I0
sg23
I0
sg24
I0
sbssg25
S'\xb9\x99\x8e\x04\x0f\xd7\xf1\x89l\x0f\xfe\x19Od\xfb\x82'
p356
ssS'ly_urls'
p357
(dp358
g6
(dp359
g287
S'ly_urls.html'
p360
sg289
S'ly/urls'
p361
sg291
g13
(g14
g15
NtRp362
(dp363
g18
I1
sg19
I0
sg20
I21
sg21
I0
sg22
I0
sg23
I0
sg24
I0
sbssg25
S'\x00\xe3\x01\xecK\x9c,\x12q\xf9\x1e+\xc6\x04\xa6$'
p364
ssS'proposal_views'
p365
(dp366
g6
(dp367
g298
S'proposal_views.html'
p368
sg300
S'proposal/views'
p369
sg302
g13
(g14
g15
NtRp370
(dp371
g18
I1
sg19
I0
sg20
I17
sg21
I0
sg22
I0
sg23
I3
sg24
I0
sbssg25
S'/6\x192LI\xe2\x93~/\x19\xa2!\xd7\\\xd6'
p372
ssS'bill_tests'
p373
(dp374
g6
(dp375
g298
S'bill_tests.html'
p376
sg300
S'bill/tests'
p377
sg302
g13
(g14
g15
NtRp378
(dp379
g18
I1
sg19
I0
sg20
I9
sg21
I0
sg22
I0
sg23
I0
sg24
I0
sbssg25
S'\xa5\xe4\t\xdcQ\x8d~\xb1\x87\xd4r\x9aP\x97~^'
p380
ssS'legislator_admin'
p381
(dp382
g6
(dp383
g287
S'legislator_admin.html'
p384
sg289
S'legislator/admin'
p385
sg291
g13
(g14
g15
NtRp386
(dp387
g18
I1
sg19
I0
sg20
I14
sg21
I0
sg22
I0
sg23
I0
sg24
I0
sbssg25
S'j_a6\xfe#\xe1\x14\x00j_\xd4\x0e)\xe8Y'
p388
ssS'legislator_models'
p389
(dp390
g6
(dp391
g163
S'legislator_models.html'
p392
sg165
S'legislator/models'
p393
sg167
g13
(g14
g15
NtRp394
(dp395
g18
I1
sg19
I0
sg20
I73
sg21
I0
sg22
I0
sg23
I6
sg24
I0
sbssg25
S"J'\x0cI\x04\xc6\xb3\x0f]N(\xc7\xb8\xd9\xa1\x9e"
p396
ssS'committees_models'
p397
(dp398
g6
(dp399
g30
S'committees_models.html'
p400
sg32
S'committees/models'
p401
sg34
g13
(g14
g15
NtRp402
(dp403
g18
I1
sg19
I0
sg20
I13
sg21
I0
sg22
I0
sg23
I1
sg24
I0
sbssg25
S"\xaa]S8:\x82's&7\x06\x1a\x1b\x06\xc0;"
p404
ssS'sittings___init__'
p405
(dp406
g6
(dp407
g30
S'sittings___init__.html'
p408
sg32
S'sittings/__init__'
p409
sg34
g13
(g14
g15
NtRp410
(dp411
g18
I1
sg19
I0
sg20
I0
sg21
I0
sg22
I0
sg23
I0
sg24
I0
sbssg25
S'\xca\xf5\x9f\x7f\x88\xdfa\x831|T\x1d\xbc}\xa5v'
p412
ssS'commontag___init__'
p413
(dp414
g6
(dp415
g30
S'commontag___init__.html'
p416
sg32
S'commontag/__init__'
p417
sg34
g13
(g14
g15
NtRp418
(dp419
g18
I1
sg19
I0
sg20
I0
sg21
I0
sg22
I0
sg23
I0
sg24
I0
sbssg25
S'\xca\xf5\x9f\x7f\x88\xdfa\x831|T\x1d\xbc}\xa5v'
p420
ssS'ly___init__'
p421
(dp422
g6
(dp423
g30
S'ly___init__.html'
p424
sg32
S'ly/__init__'
p425
sg34
g13
(g14
g15
NtRp426
(dp427
g18
I1
sg19
I0
sg20
I0
sg21
I0
sg22
I0
sg23
I0
sg24
I0
sbssg25
S'\xca\xf5\x9f\x7f\x88\xdfa\x831|T\x1d\xbc}\xa5v'
p428
ssS'sittings_views'
p429
(dp430
g6
(dp431
g30
S'sittings_views.html'
p432
sg32
S'sittings/views'
p433
sg34
g13
(g14
g15
NtRp434
(dp435
g18
I1
sg19
I0
sg20
I0
sg21
I0
sg22
I0
sg23
I0
sg24
I0
sbssg25
S'\xbb\xe8\xc1Q\x1b;\x06\x08\xf4\n[\xbf\x901v\x0e'
p436
ssS'proposal_urls'
p437
(dp438
g6
(dp439
S'html_filename'
p440
S'proposal_urls.html'
p441
sS'name'
p442
S'proposal/urls'
p443
sS'nums'
p444
g13
(g14
g15
NtRp445
(dp446
g18
I1
sg19
I0
sg20
I3
sg21
I0
sg22
I0
sg23
I0
sg24
I0
sbssg25
S'\xd00\x19\x95\xa4;\xbf;gb\xa7\xac\x83\xe55\xea'
p447
ssS'bill_models'
p448
(dp449
g6
(dp450
g30
S'bill_models.html'
p451
sg32
S'bill/models'
p452
sg34
g13
(g14
g15
NtRp453
(dp454
g18
I1
sg19
I0
sg20
I59
sg21
I0
sg22
I0
sg23
I3
sg24
I0
sbssg25
S' \xb9\xb3\xd8C\xa4\xc5\xdbq@\xe9wn7\xcb\xa7'
p455
ssS'bill_migrations_0003_auto__chg_field_ttsmotions_category__chg_field_ttsmotions_tags__chg_fi'
p456
(dp457
g6
(dp458
g30
S'bill_migrations_0003_auto__chg_field_ttsmotions_category__chg_field_ttsmotions_tags__chg_fi.html'
p459
sg32
S'bill/migrations/0003_auto__chg_field_ttsmotions_category__chg_field_ttsmotions_tags__chg_fi'
p460
sg34
g13
(g14
g15
NtRp461
(dp462
g18
I1
sg19
I0
sg20
I23
sg21
I0
sg22
I0
sg23
I7
sg24
I0
sbssg25
S'\xb1\xa2EE\xc1c(\xa4\x99\xee\xc4\xa3\xcdo\xf6\xe8'
p463
ssS'bill_urls'
p464
(dp465
g6
(dp466
g440
S'bill_urls.html'
p467
sg442
S'bill/urls'
p468
sg444
g13
(g14
g15
NtRp469
(dp470
g18
I1
sg19
I0
sg20
I3
sg21
I0
sg22
I0
sg23
I0
sg24
I0
sbssg25
S'\xfe\xa5S|\x1d\xe2\xb9\x8c\x85\x03j\xbe\xc1\xb9\x14='
p471
ssS'search_models'
p472
(dp473
g6
(dp474
g30
S'search_models.html'
p475
sg32
S'search/models'
p476
sg34
g13
(g14
g15
NtRp477
(dp478
g18
I1
sg19
I0
sg20
I8
sg21
I0
sg22
I0
sg23
I1
sg24
I0
sbssg25
S'\xd6\x1d\xdag\x97-\x9fX\x1d\xd0o\xfb\xd9c\xa3\xa0'
p479
ssS'vote___init__'
p480
(dp481
g6
(dp482
g30
S'vote___init__.html'
p483
sg32
S'vote/__init__'
p484
sg34
g13
(g14
g15
NtRp485
(dp486
g18
I1
sg19
I0
sg20
I0
sg21
I0
sg22
I0
sg23
I0
sg24
I0
sbssg25
S'\xca\xf5\x9f\x7f\x88\xdfa\x831|T\x1d\xbc}\xa5v'
p487
ssS'commontag_models'
p488
(dp489
g6
(dp490
g30
S'commontag_models.html'
p491
sg32
S'commontag/models'
p492
sg34
g13
(g14
g15
NtRp493
(dp494
g18
I1
sg19
I0
sg20
I1
sg21
I0
sg22
I0
sg23
I0
sg24
I0
sbssg25
S'\xd5M\xc7\x8c\x14P\xcc\xf0D\xe4\x95\xf6\x03`\xf1a'
p495
ssS'committees_views'
p496
(dp497
g6
(dp498
g30
S'committees_views.html'
p499
sg32
S'committees/views'
p500
sg34
g13
(g14
g15
NtRp501
(dp502
g18
I1
sg19
I0
sg20
I0
sg21
I0
sg22
I0
sg23
I0
sg24
I0
sbssg25
S'\xbb\xe8\xc1Q\x1b;\x06\x08\xf4\n[\xbf\x901v\x0e'
p503
ssS'committees_tests'
p504
(dp505
g6
(dp506
g30
S'committees_tests.html'
p507
sg32
S'committees/tests'
p508
sg34
g13
(g14
g15
NtRp509
(dp510
g18
I1
sg19
I0
sg20
I4
sg21
I0
sg22
I0
sg23
I0
sg24
I0
sbssg25
S'\xe5\xc7X\x04rgg\x8a\x08\x14\xaa\xc0@\xc2\x8b\x97'
p511
ssS'vote_urls'
p512
(dp513
g6
(dp514
g440
S'vote_urls.html'
p515
sg442
S'vote/urls'
p516
sg444
g13
(g14
g15
NtRp517
(dp518
g18
I1
sg19
I0
sg20
I3
sg21
I0
sg22
I0
sg23
I0
sg24
I0
sbssg25
S"\x8e\x12\x10W\xb66\xff\x92\n{v'\x9d\xf6\x12\xce"
p519
ssS'search___init__'
p520
(dp521
g6
(dp522
g30
S'search___init__.html'
p523
sg32
S'search/__init__'
p524
sg34
g13
(g14
g15
NtRp525
(dp526
g18
I1
sg19
I0
sg20
I0
sg21
I0
sg22
I0
sg23
I0
sg24
I0
sbssg25
S'\xca\xf5\x9f\x7f\x88\xdfa\x831|T\x1d\xbc}\xa5v'
p527
ssS'issue_views'
p528
(dp529
g6
(dp530
g30
S'issue_views.html'
p531
sg32
S'issue/views'
p532
sg34
g13
(g14
g15
NtRp533
(dp534
g18
I1
sg19
I0
sg20
I14
sg21
I0
sg22
I0
sg23
I9
sg24
I0
sbssg25
S'+-\x92p{\xa1N+\xbd\x13\x94\xc3<v\xbbw'
p535
ssS'sittings_tests'
p536
(dp537
g6
(dp538
g30
S'sittings_tests.html'
p539
sg32
S'sittings/tests'
p540
sg34
g13
(g14
g15
NtRp541
(dp542
g18
I1
sg19
I0
sg20
I4
sg21
I0
sg22
I0
sg23
I0
sg24
I0
sbssg25
S'\xe5\xc7X\x04rgg\x8a\x08\x14\xaa\xc0@\xc2\x8b\x97'
p543
sssS'version'
p544
S'3.7.1'
p545
sS'settings'
p546
S'\x1cL\x8e\xcf\xc6\xec\xd9\xf6fM\xf4k4\xf5-\xd8'
p547
sS'format'
p548
I1
s.