(dp1
S'files'
p2
(dp3
S'vote_views'
p4
(dp5
S'index'
p6
(dp7
S'html_filename'
p8
S'vote_views.html'
p9
sS'name'
p10
S'vote/views'
p11
sS'nums'
p12
ccopy_reg
_reconstructor
p13
(ccoverage.results
Numbers
p14
c__builtin__
object
p15
NtRp16
(dp17
S'n_files'
p18
I1
sS'n_branches'
p19
I0
sS'n_statements'
p20
I28
sS'n_excluded'
p21
I0
sS'n_partial_branches'
p22
I0
sS'n_missing'
p23
I0
sS'n_missing_branches'
p24
I0
sbssS'hash'
p25
S'A\x9eJ\t\xc5\x93\xd6S\x1a\xef\x8e(NnB\x92'
p26
ssS'api_fields'
p27
(dp28
g6
(dp29
S'html_filename'
p30
S'api_fields.html'
p31
sS'name'
p32
S'api/fields'
p33
sS'nums'
p34
g13
(g14
g15
NtRp35
(dp36
g18
I1
sg19
I0
sg20
I5
sg21
I0
sg22
I0
sg23
I1
sg24
I0
sbssg25
S'\xc5\t:\xeb\x8e\xc3\xc7\x16\x16\x06Y\xc5\xaf\x15\x05?'
p37
ssS'manage'
p38
(dp39
g6
(dp40
g30
S'manage.html'
p41
sg32
g38
sg34
g13
(g14
g15
NtRp42
(dp43
g18
I1
sg19
I0
sg20
I6
sg21
I0
sg22
I0
sg23
I0
sg24
I0
sbssg25
S'*\xf6\xd0R\xbe\xf4"\xa1`\xee~I@g"<'
p44
ssS'api_serializers'
p45
(dp46
g6
(dp47
g30
S'api_serializers.html'
p48
sg32
S'api/serializers'
p49
sg34
g13
(g14
g15
NtRp50
(dp51
g18
I1
sg19
I0
sg20
I62
sg21
I0
sg22
I0
sg23
I0
sg24
I0
sbssg25
S'\xa4\xc4\xc3\nu\xbd\rS1\x9b\xa8\xb7\xd6}\x00\xae'
p52
ssS'vote_models'
p53
(dp54
g6
(dp55
S'html_filename'
p56
S'vote_models.html'
p57
sS'name'
p58
S'vote/models'
p59
sS'nums'
p60
g13
(g14
g15
NtRp61
(dp62
g18
I1
sg19
I0
sg20
I23
sg21
I0
sg22
I0
sg23
I1
sg24
I0
sbssg25
S')\xc3b\x88\x023w\x13\xe3\x04l\x83\x19\xfb\xef\x8e'
p63
ssS'commontag_templatetags___init__'
p64
(dp65
g6
(dp66
g30
S'commontag_templatetags___init__.html'
p67
sg32
S'commontag/templatetags/__init__'
p68
sg34
g13
(g14
g15
NtRp69
(dp70
g18
I1
sg19
I0
sg20
I0
sg21
I0
sg22
I0
sg23
I0
sg24
I0
sbssg25
S'\xca\xf5\x9f\x7f\x88\xdfa\x831|T\x1d\xbc}\xa5v'
p71
ssS'issue___init__'
p72
(dp73
g6
(dp74
g30
S'issue___init__.html'
p75
sg32
S'issue/__init__'
p76
sg34
g13
(g14
g15
NtRp77
(dp78
g18
I1
sg19
I0
sg20
I0
sg21
I0
sg22
I0
sg23
I0
sg24
I0
sbssg25
S'\xca\xf5\x9f\x7f\x88\xdfa\x831|T\x1d\xbc}\xa5v'
p79
ssS'legislator___init__'
p80
(dp81
g6
(dp82
g30
S'legislator___init__.html'
p83
sg32
S'legislator/__init__'
p84
sg34
g13
(g14
g15
NtRp85
(dp86
g18
I1
sg19
I0
sg20
I0
sg21
I0
sg22
I0
sg23
I0
sg24
I0
sbssg25
S'\xca\xf5\x9f\x7f\x88\xdfa\x831|T\x1d\xbc}\xa5v'
p87
ssS'ly_wsgi'
p88
(dp89
g6
(dp90
g30
S'ly_wsgi.html'
p91
sg32
S'ly/wsgi'
p92
sg34
g13
(g14
g15
NtRp93
(dp94
g18
I1
sg19
I0
sg20
I4
sg21
I0
sg22
I0
sg23
I0
sg24
I0
sbssg25
S'\x9f\xf5\x00\x13\x8f7\xc5J\x8e\xcet{xp\xfe|'
p95
ssS'issue_urls'
p96
(dp97
g6
(dp98
g30
S'issue_urls.html'
p99
sg32
S'issue/urls'
p100
sg34
g13
(g14
g15
NtRp101
(dp102
g18
I1
sg19
I0
sg20
I3
sg21
I0
sg22
I0
sg23
I0
sg24
I0
sbssg25
S'\x95\xf7:x#\x17N\xfcJC$g\xf2\xeb\xe4e'
p103
ssS'api___init__'
p104
(dp105
g6
(dp106
g30
S'api___init__.html'
p107
sg32
S'api/__init__'
p108
sg34
g13
(g14
g15
NtRp109
(dp110
g18
I1
sg19
I0
sg20
I0
sg21
I0
sg22
I0
sg23
I0
sg24
I0
sbssg25
S'\xca\xf5\x9f\x7f\x88\xdfa\x831|T\x1d\xbc}\xa5v'
p111
ssS'bill_migrations___init__'
p112
(dp113
g6
(dp114
g30
S'bill_migrations___init__.html'
p115
sg32
S'bill/migrations/__init__'
p116
sg34
g13
(g14
g15
NtRp117
(dp118
g18
I1
sg19
I0
sg20
I0
sg21
I0
sg22
I0
sg23
I0
sg24
I0
sbssg25
S'\xca\xf5\x9f\x7f\x88\xdfa\x831|T\x1d\xbc}\xa5v'
p119
ssS'committees___init__'
p120
(dp121
g6
(dp122
g30
S'committees___init__.html'
p123
sg32
S'committees/__init__'
p124
sg34
g13
(g14
g15
NtRp125
(dp126
g18
I1
sg19
I0
sg20
I0
sg21
I0
sg22
I0
sg23
I0
sg24
I0
sbssg25
S'\xca\xf5\x9f\x7f\x88\xdfa\x831|T\x1d\xbc}\xa5v'
p127
ssS'issue_tests'
p128
(dp129
g6
(dp130
g30
S'issue_tests.html'
p131
sg32
S'issue/tests'
p132
sg34
g13
(g14
g15
NtRp133
(dp134
g18
I1
sg19
I0
sg20
I4
sg21
I0
sg22
I0
sg23
I0
sg24
I0
sbssg25
S'\xe5\xc7X\x04rgg\x8a\x08\x14\xaa\xc0@\xc2\x8b\x97'
p135
ssS'ly_local_settings'
p136
(dp137
g6
(dp138
S'html_filename'
p139
S'ly_local_settings.html'
p140
sS'name'
p141
S'ly/local_settings'
p142
sS'nums'
p143
g13
(g14
g15
NtRp144
(dp145
g18
I1
sg19
I0
sg20
I2
sg21
I0
sg22
I0
sg23
I0
sg24
I0
sbssg25
S"4\xb4\x82\xcb,\x1fjc\x90\x91a\xe4\xb7't%"
p146
ssS'ly_test'
p147
(dp148
g6
(dp149
S'html_filename'
p150
S'ly_test.html'
p151
sS'name'
p152
S'ly/test'
p153
sS'nums'
p154
g13
(g14
g15
NtRp155
(dp156
g18
I1
sg19
I0
sg20
I6
sg21
I0
sg22
I0
sg23
I0
sg24
I0
sbssg25
S'a\xe8e-\x08A\xcf\xabtn\x88\xea\xc6\xe6\xa9\x04'
p157
ssS'proposal___init__'
p158
(dp159
g6
(dp160
g30
S'proposal___init__.html'
p161
sg32
S'proposal/__init__'
p162
sg34
g13
(g14
g15
NtRp163
(dp164
g18
I1
sg19
I0
sg20
I0
sg21
I0
sg22
I0
sg23
I0
sg24
I0
sbssg25
S'\xca\xf5\x9f\x7f\x88\xdfa\x831|T\x1d\xbc}\xa5v'
p165
ssS'legislator_urls'
p166
(dp167
g6
(dp168
S'html_filename'
p169
S'legislator_urls.html'
p170
sS'name'
p171
S'legislator/urls'
p172
sS'nums'
p173
g13
(g14
g15
NtRp174
(dp175
g18
I1
sg19
I0
sg20
I3
sg21
I0
sg22
I0
sg23
I0
sg24
I0
sbssg25
S'\xe6\xe64C\xccS6\x86\xd4\xb7\xf0@\xa0v\xa1o'
p176
ssS'bill___init__'
p177
(dp178
g6
(dp179
g30
S'bill___init__.html'
p180
sg32
S'bill/__init__'
p181
sg34
g13
(g14
g15
NtRp182
(dp183
g18
I1
sg19
I0
sg20
I0
sg21
I0
sg22
I0
sg23
I0
sg24
I0
sbssg25
S'\xca\xf5\x9f\x7f\x88\xdfa\x831|T\x1d\xbc}\xa5v'
p184
ssS'commontag_tests'
p185
(dp186
g6
(dp187
g30
S'commontag_tests.html'
p188
sg32
S'commontag/tests'
p189
sg34
g13
(g14
g15
NtRp190
(dp191
g18
I1
sg19
I0
sg20
I4
sg21
I0
sg22
I0
sg23
I0
sg24
I0
sbssg25
S'\xe5\xc7X\x04rgg\x8a\x08\x14\xaa\xc0@\xc2\x8b\x97'
p192
ssS'bill_migrations_0002_auto__chg_field_ttsmotions_category__chg_field_ttsmotions_tags__chg_fi'
p193
(dp194
g6
(dp195
g30
S'bill_migrations_0002_auto__chg_field_ttsmotions_category__chg_field_ttsmotions_tags__chg_fi.html'
p196
sg32
S'bill/migrations/0002_auto__chg_field_ttsmotions_category__chg_field_ttsmotions_tags__chg_fi'
p197
sg34
g13
(g14
g15
NtRp198
(dp199
g18
I1
sg19
I0
sg20
I25
sg21
I0
sg22
I0
sg23
I8
sg24
I0
sbssg25
S'|\xa4_A\xaf\xe2\xae\x1f%\x00\xff\x10iA\xbb\x0f'
p200
ssS'api_views'
p201
(dp202
g6
(dp203
g30
S'api_views.html'
p204
sg32
S'api/views'
p205
sg34
g13
(g14
g15
NtRp206
(dp207
g18
I1
sg19
I0
sg20
I62
sg21
I0
sg22
I0
sg23
I0
sg24
I0
sbssg25
S'\xb6$[\xf8[\x03}!j\xde6\xc8\x02\xc9\x06>'
p208
ssS'commontag_views'
p209
(dp210
g6
(dp211
g30
S'commontag_views.html'
p212
sg32
S'commontag/views'
p213
sg34
g13
(g14
g15
NtRp214
(dp215
g18
I1
sg19
I0
sg20
I0
sg21
I0
sg22
I0
sg23
I0
sg24
I0
sbssg25
S'\xbb\xe8\xc1Q\x1b;\x06\x08\xf4\n[\xbf\x901v\x0e'
p216
ssS'vote_tests'
p217
(dp218
g6
(dp219
S'html_filename'
p220
S'vote_tests.html'
p221
sS'name'
p222
S'vote/tests'
p223
sS'nums'
p224
g13
(g14
g15
NtRp225
(dp226
g18
I1
sg19
I0
sg20
I22
sg21
I0
sg22
I0
sg23
I0
sg24
I0
sbssg25
S'\x7f~\xae\x1bq.w\x85\x04\xeb\xce\x9b\xda\xaf\x89\x80'
p227
ssS'commontag_templatetags_ly_extras'
p228
(dp229
g6
(dp230
S'html_filename'
p231
S'commontag_templatetags_ly_extras.html'
p232
sS'name'
p233
S'commontag/templatetags/ly_extras'
p234
sS'nums'
p235
g13
(g14
g15
NtRp236
(dp237
g18
I1
sg19
I0
sg20
I23
sg21
I0
sg22
I0
sg23
I2
sg24
I0
sbssg25
S'\x90\xdcQv\xe3\x01\xbe\xa8d\xb4,cB\xc40\r'
p238
ssS'legislator_tests'
p239
(dp240
g6
(dp241
g220
S'legislator_tests.html'
p242
sg222
S'legislator/tests'
p243
sg224
g13
(g14
g15
NtRp244
(dp245
g18
I1
sg19
I0
sg20
I45
sg21
I0
sg22
I0
sg23
I0
sg24
I0
sbssg25
S'\xcfa\xa8L\xf3/\x8e\xef\xe4\xe0\xcc\x8f\x10F\xb1!'
p246
ssS'bill_migrations_0001_initial'
p247
(dp248
g6
(dp249
g30
S'bill_migrations_0001_initial.html'
p250
sg32
S'bill/migrations/0001_initial'
p251
sg34
g13
(g14
g15
NtRp252
(dp253
g18
I1
sg19
I0
sg20
I24
sg21
I0
sg22
I0
sg23
I5
sg24
I0
sbssg25
S'?*\x92\x0f\xa2\x9f\x18\x82\x9e6\t\x84\xbd\xa8*\x80'
p254
ssS'search_tests'
p255
(dp256
g6
(dp257
g30
S'search_tests.html'
p258
sg32
S'search/tests'
p259
sg34
g13
(g14
g15
NtRp260
(dp261
g18
I1
sg19
I0
sg20
I4
sg21
I0
sg22
I0
sg23
I0
sg24
I0
sbssg25
S'\xe5\xc7X\x04rgg\x8a\x08\x14\xaa\xc0@\xc2\x8b\x97'
p262
ssS'legislator_views'
p263
(dp264
g6
(dp265
S'html_filename'
p266
S'legislator_views.html'
p267
sS'name'
p268
S'legislator/views'
p269
sS'nums'
p270
g13
(g14
g15
NtRp271
(dp272
g18
I1
sg19
I0
sg20
I174
sg21
I0
sg22
I0
sg23
I14
sg24
I0
sbssg25
S'\xc9\xba{H`O\xb7X\xf2\x1c\xc8\xdf\xf3\xa6\xf7v'
p273
ssS'legislator_context_processor'
p274
(dp275
g6
(dp276
g30
S'legislator_context_processor.html'
p277
sg32
S'legislator/context_processor'
p278
sg34
g13
(g14
g15
NtRp279
(dp280
g18
I1
sg19
I0
sg20
I14
sg21
I0
sg22
I0
sg23
I0
sg24
I0
sbssg25
S'\xdfU\xb4\x1a\x19O\x8e\xf2.\xc5\xaf\xb7\xa9\xda\xf2#'
p281
ssS'search_views'
p282
(dp283
g6
(dp284
S'html_filename'
p285
S'search_views.html'
p286
sS'name'
p287
S'search/views'
p288
sS'nums'
p289
g13
(g14
g15
NtRp290
(dp291
g18
I1
sg19
I0
sg20
I16
sg21
I0
sg22
I0
sg23
I1
sg24
I0
sbssg25
S'\x93%\x14\x02x]\xa8\xaa\xf5\xf0V9\xc6\xce\xd5t'
p292
ssS'ly_settings'
p293
(dp294
g6
(dp295
S'html_filename'
p296
S'ly_settings.html'
p297
sS'name'
p298
S'ly/settings'
p299
sS'nums'
p300
g13
(g14
g15
NtRp301
(dp302
g18
I1
sg19
I0
sg20
I35
sg21
I0
sg22
I0
sg23
I1
sg24
I0
sbssg25
S'\xa8\xb3\x99\xa7\x02\x08d\x1a6Y\xf0\x87\xe9\xba\x99\x8a'
p303
ssS'bill_views'
p304
(dp305
g6
(dp306
g285
S'bill_views.html'
p307
sg287
S'bill/views'
p308
sg289
g13
(g14
g15
NtRp309
(dp310
g18
I1
sg19
I0
sg20
I21
sg21
I0
sg22
I0
sg23
I0
sg24
I0
sbssg25
S"\xbc\x84\xfd\x15\x8f\x1f\x93\xdf\xe1h['K\x9e Q"
p311
ssS'proposal_tests'
p312
(dp313
g6
(dp314
g220
S'proposal_tests.html'
p315
sg222
S'proposal/tests'
p316
sg224
g13
(g14
g15
NtRp317
(dp318
g18
I1
sg19
I0
sg20
I21
sg21
I0
sg22
I0
sg23
I0
sg24
I0
sbssg25
S'\xc4\xe7\xa2\xce\xa5]|i\x1c\xd9^o\xeb:\xc8O'
p319
ssS'sittings_models'
p320
(dp321
g6
(dp322
g30
S'sittings_models.html'
p323
sg32
S'sittings/models'
p324
sg34
g13
(g14
g15
NtRp325
(dp326
g18
I1
sg19
I0
sg20
I10
sg21
I0
sg22
I0
sg23
I1
sg24
I0
sbssg25
S'\x80wh\xd6\xd8\xef-<\x94j\x9f\x11i\x08\x8d\xd2'
p327
ssS'proposal_models'
p328
(dp329
g6
(dp330
g220
S'proposal_models.html'
p331
sg222
S'proposal/models'
p332
sg224
g13
(g14
g15
NtRp333
(dp334
g18
I1
sg19
I0
sg20
I21
sg21
I0
sg22
I0
sg23
I1
sg24
I0
sbssg25
S'\x89\xb7\xb9\xdd\xa7\x13\x0b\x1a\xfeK\xe4\xc5\xa0V\xecJ'
p335
ssS'issue_models'
p336
(dp337
g6
(dp338
g30
S'issue_models.html'
p339
sg32
S'issue/models'
p340
sg34
g13
(g14
g15
NtRp341
(dp342
g18
I1
sg19
I0
sg20
I36
sg21
I0
sg22
I0
sg23
I2
sg24
I0
sbssg25
S'`\x04\x1b\xd7\x14+\x13}\xfd\xc3dyk\x1b\xf8\x11'
p343
ssS'api_tests'
p344
(dp345
g6
(dp346
g30
S'api_tests.html'
p347
sg32
S'api/tests'
p348
sg34
g13
(g14
g15
NtRp349
(dp350
g18
I1
sg19
I0
sg20
I4
sg21
I0
sg22
I0
sg23
I0
sg24
I0
sbssg25
S'\xe5\xc7X\x04rgg\x8a\x08\x14\xaa\xc0@\xc2\x8b\x97'
p351
ssS'ly_views'
p352
(dp353
g6
(dp354
S'html_filename'
p355
S'ly_views.html'
p356
sS'name'
p357
S'ly/views'
p358
sS'nums'
p359
g13
(g14
g15
NtRp360
(dp361
g18
I1
sg19
I0
sg20
I11
sg21
I0
sg22
I0
sg23
I0
sg24
I0
sbssg25
S'\xb9\x99\x8e\x04\x0f\xd7\xf1\x89l\x0f\xfe\x19Od\xfb\x82'
p362
ssS'ly_urls'
p363
(dp364
g6
(dp365
g296
S'ly_urls.html'
p366
sg298
S'ly/urls'
p367
sg300
g13
(g14
g15
NtRp368
(dp369
g18
I1
sg19
I0
sg20
I21
sg21
I0
sg22
I0
sg23
I0
sg24
I0
sbssg25
S'\x00\xe3\x01\xecK\x9c,\x12q\xf9\x1e+\xc6\x04\xa6$'
p370
ssS'proposal_views'
p371
(dp372
g6
(dp373
g8
S'proposal_views.html'
p374
sg10
S'proposal/views'
p375
sg12
g13
(g14
g15
NtRp376
(dp377
g18
I1
sg19
I0
sg20
I22
sg21
I0
sg22
I0
sg23
I0
sg24
I0
sbssg25
S'\xfb\xe0"\x07\xea\xc7\xa0\xce\xea\xa5\xe2\x93$\xaf\xbba'
p378
ssS'bill_tests'
p379
(dp380
g6
(dp381
g285
S'bill_tests.html'
p382
sg287
S'bill/tests'
p383
sg289
g13
(g14
g15
NtRp384
(dp385
g18
I1
sg19
I0
sg20
I12
sg21
I0
sg22
I0
sg23
I0
sg24
I0
sbssg25
S'4;\xb7\x81,\xb0}T\xadw\xdb\x97\xe9\xa1\xd9u'
p386
ssS'legislator_admin'
p387
(dp388
g6
(dp389
g296
S'legislator_admin.html'
p390
sg298
S'legislator/admin'
p391
sg300
g13
(g14
g15
NtRp392
(dp393
g18
I1
sg19
I0
sg20
I14
sg21
I0
sg22
I0
sg23
I0
sg24
I0
sbssg25
S'j_a6\xfe#\xe1\x14\x00j_\xd4\x0e)\xe8Y'
p394
ssS'legislator_models'
p395
(dp396
g6
(dp397
g169
S'legislator_models.html'
p398
sg171
S'legislator/models'
p399
sg173
g13
(g14
g15
NtRp400
(dp401
g18
I1
sg19
I0
sg20
I73
sg21
I0
sg22
I0
sg23
I6
sg24
I0
sbssg25
S"J'\x0cI\x04\xc6\xb3\x0f]N(\xc7\xb8\xd9\xa1\x9e"
p402
ssS'committees_models'
p403
(dp404
g6
(dp405
g30
S'committees_models.html'
p406
sg32
S'committees/models'
p407
sg34
g13
(g14
g15
NtRp408
(dp409
g18
I1
sg19
I0
sg20
I13
sg21
I0
sg22
I0
sg23
I1
sg24
I0
sbssg25
S"\xaa]S8:\x82's&7\x06\x1a\x1b\x06\xc0;"
p410
ssS'sittings___init__'
p411
(dp412
g6
(dp413
g30
S'sittings___init__.html'
p414
sg32
S'sittings/__init__'
p415
sg34
g13
(g14
g15
NtRp416
(dp417
g18
I1
sg19
I0
sg20
I0
sg21
I0
sg22
I0
sg23
I0
sg24
I0
sbssg25
S'\xca\xf5\x9f\x7f\x88\xdfa\x831|T\x1d\xbc}\xa5v'
p418
ssS'commontag___init__'
p419
(dp420
g6
(dp421
g30
S'commontag___init__.html'
p422
sg32
S'commontag/__init__'
p423
sg34
g13
(g14
g15
NtRp424
(dp425
g18
I1
sg19
I0
sg20
I0
sg21
I0
sg22
I0
sg23
I0
sg24
I0
sbssg25
S'\xca\xf5\x9f\x7f\x88\xdfa\x831|T\x1d\xbc}\xa5v'
p426
ssS'ly___init__'
p427
(dp428
g6
(dp429
g30
S'ly___init__.html'
p430
sg32
S'ly/__init__'
p431
sg34
g13
(g14
g15
NtRp432
(dp433
g18
I1
sg19
I0
sg20
I0
sg21
I0
sg22
I0
sg23
I0
sg24
I0
sbssg25
S'\xca\xf5\x9f\x7f\x88\xdfa\x831|T\x1d\xbc}\xa5v'
p434
ssS'sittings_views'
p435
(dp436
g6
(dp437
g30
S'sittings_views.html'
p438
sg32
S'sittings/views'
p439
sg34
g13
(g14
g15
NtRp440
(dp441
g18
I1
sg19
I0
sg20
I0
sg21
I0
sg22
I0
sg23
I0
sg24
I0
sbssg25
S'\xbb\xe8\xc1Q\x1b;\x06\x08\xf4\n[\xbf\x901v\x0e'
p442
ssS'proposal_urls'
p443
(dp444
g6
(dp445
S'html_filename'
p446
S'proposal_urls.html'
p447
sS'name'
p448
S'proposal/urls'
p449
sS'nums'
p450
g13
(g14
g15
NtRp451
(dp452
g18
I1
sg19
I0
sg20
I3
sg21
I0
sg22
I0
sg23
I0
sg24
I0
sbssg25
S'\xd00\x19\x95\xa4;\xbf;gb\xa7\xac\x83\xe55\xea'
p453
ssS'bill_models'
p454
(dp455
g6
(dp456
g30
S'bill_models.html'
p457
sg32
S'bill/models'
p458
sg34
g13
(g14
g15
NtRp459
(dp460
g18
I1
sg19
I0
sg20
I59
sg21
I0
sg22
I0
sg23
I3
sg24
I0
sbssg25
S' \xb9\xb3\xd8C\xa4\xc5\xdbq@\xe9wn7\xcb\xa7'
p461
ssS'bill_migrations_0003_auto__chg_field_ttsmotions_category__chg_field_ttsmotions_tags__chg_fi'
p462
(dp463
g6
(dp464
g30
S'bill_migrations_0003_auto__chg_field_ttsmotions_category__chg_field_ttsmotions_tags__chg_fi.html'
p465
sg32
S'bill/migrations/0003_auto__chg_field_ttsmotions_category__chg_field_ttsmotions_tags__chg_fi'
p466
sg34
g13
(g14
g15
NtRp467
(dp468
g18
I1
sg19
I0
sg20
I23
sg21
I0
sg22
I0
sg23
I7
sg24
I0
sbssg25
S'\xb1\xa2EE\xc1c(\xa4\x99\xee\xc4\xa3\xcdo\xf6\xe8'
p469
ssS'bill_urls'
p470
(dp471
g6
(dp472
g446
S'bill_urls.html'
p473
sg448
S'bill/urls'
p474
sg450
g13
(g14
g15
NtRp475
(dp476
g18
I1
sg19
I0
sg20
I3
sg21
I0
sg22
I0
sg23
I0
sg24
I0
sbssg25
S'\xfe\xa5S|\x1d\xe2\xb9\x8c\x85\x03j\xbe\xc1\xb9\x14='
p477
ssS'search_models'
p478
(dp479
g6
(dp480
g30
S'search_models.html'
p481
sg32
S'search/models'
p482
sg34
g13
(g14
g15
NtRp483
(dp484
g18
I1
sg19
I0
sg20
I8
sg21
I0
sg22
I0
sg23
I1
sg24
I0
sbssg25
S'\xd6\x1d\xdag\x97-\x9fX\x1d\xd0o\xfb\xd9c\xa3\xa0'
p485
ssS'vote___init__'
p486
(dp487
g6
(dp488
g30
S'vote___init__.html'
p489
sg32
S'vote/__init__'
p490
sg34
g13
(g14
g15
NtRp491
(dp492
g18
I1
sg19
I0
sg20
I0
sg21
I0
sg22
I0
sg23
I0
sg24
I0
sbssg25
S'\xca\xf5\x9f\x7f\x88\xdfa\x831|T\x1d\xbc}\xa5v'
p493
ssS'commontag_models'
p494
(dp495
g6
(dp496
g30
S'commontag_models.html'
p497
sg32
S'commontag/models'
p498
sg34
g13
(g14
g15
NtRp499
(dp500
g18
I1
sg19
I0
sg20
I1
sg21
I0
sg22
I0
sg23
I0
sg24
I0
sbssg25
S'\xd5M\xc7\x8c\x14P\xcc\xf0D\xe4\x95\xf6\x03`\xf1a'
p501
ssS'committees_views'
p502
(dp503
g6
(dp504
g30
S'committees_views.html'
p505
sg32
S'committees/views'
p506
sg34
g13
(g14
g15
NtRp507
(dp508
g18
I1
sg19
I0
sg20
I0
sg21
I0
sg22
I0
sg23
I0
sg24
I0
sbssg25
S'\xbb\xe8\xc1Q\x1b;\x06\x08\xf4\n[\xbf\x901v\x0e'
p509
ssS'committees_tests'
p510
(dp511
g6
(dp512
g30
S'committees_tests.html'
p513
sg32
S'committees/tests'
p514
sg34
g13
(g14
g15
NtRp515
(dp516
g18
I1
sg19
I0
sg20
I4
sg21
I0
sg22
I0
sg23
I0
sg24
I0
sbssg25
S'\xe5\xc7X\x04rgg\x8a\x08\x14\xaa\xc0@\xc2\x8b\x97'
p517
ssS'vote_urls'
p518
(dp519
g6
(dp520
g446
S'vote_urls.html'
p521
sg448
S'vote/urls'
p522
sg450
g13
(g14
g15
NtRp523
(dp524
g18
I1
sg19
I0
sg20
I3
sg21
I0
sg22
I0
sg23
I0
sg24
I0
sbssg25
S"\x8e\x12\x10W\xb66\xff\x92\n{v'\x9d\xf6\x12\xce"
p525
ssS'search___init__'
p526
(dp527
g6
(dp528
g30
S'search___init__.html'
p529
sg32
S'search/__init__'
p530
sg34
g13
(g14
g15
NtRp531
(dp532
g18
I1
sg19
I0
sg20
I0
sg21
I0
sg22
I0
sg23
I0
sg24
I0
sbssg25
S'\xca\xf5\x9f\x7f\x88\xdfa\x831|T\x1d\xbc}\xa5v'
p533
ssS'issue_views'
p534
(dp535
g6
(dp536
g30
S'issue_views.html'
p537
sg32
S'issue/views'
p538
sg34
g13
(g14
g15
NtRp539
(dp540
g18
I1
sg19
I0
sg20
I14
sg21
I0
sg22
I0
sg23
I9
sg24
I0
sbssg25
S'+-\x92p{\xa1N+\xbd\x13\x94\xc3<v\xbbw'
p541
ssS'sittings_tests'
p542
(dp543
g6
(dp544
g30
S'sittings_tests.html'
p545
sg32
S'sittings/tests'
p546
sg34
g13
(g14
g15
NtRp547
(dp548
g18
I1
sg19
I0
sg20
I4
sg21
I0
sg22
I0
sg23
I0
sg24
I0
sbssg25
S'\xe5\xc7X\x04rgg\x8a\x08\x14\xaa\xc0@\xc2\x8b\x97'
p549
sssS'version'
p550
S'3.7.1'
p551
sS'settings'
p552
S'\x1cL\x8e\xcf\xc6\xec\xd9\xf6fM\xf4k4\xf5-\xd8'
p553
sS'format'
p554
I1
s.